
ctarget:     file format elf64-x86-64


Disassembly of section .init:

0000000000400bc0 <_init>:
  400bc0:	48 83 ec 08          	sub    $0x8,%rsp
  400bc4:	48 8b 05 2d 34 20 00 	mov    0x20342d(%rip),%rax        # 603ff8 <__gmon_start__>
  400bcb:	48 85 c0             	test   %rax,%rax
  400bce:	74 05                	je     400bd5 <_init+0x15>
  400bd0:	e8 2b 01 00 00       	callq  400d00 <__gmon_start__@plt>
  400bd5:	48 83 c4 08          	add    $0x8,%rsp
  400bd9:	c3                   	retq   

Disassembly of section .plt:

0000000000400be0 <.plt>:
  400be0:	ff 35 22 34 20 00    	pushq  0x203422(%rip)        # 604008 <_GLOBAL_OFFSET_TABLE_+0x8>
  400be6:	ff 25 24 34 20 00    	jmpq   *0x203424(%rip)        # 604010 <_GLOBAL_OFFSET_TABLE_+0x10>
  400bec:	0f 1f 40 00          	nopl   0x0(%rax)

0000000000400bf0 <getenv@plt>:
  400bf0:	ff 25 22 34 20 00    	jmpq   *0x203422(%rip)        # 604018 <getenv@GLIBC_2.2.5>
  400bf6:	68 00 00 00 00       	pushq  $0x0
  400bfb:	e9 e0 ff ff ff       	jmpq   400be0 <.plt>

0000000000400c00 <strcasecmp@plt>:
  400c00:	ff 25 1a 34 20 00    	jmpq   *0x20341a(%rip)        # 604020 <strcasecmp@GLIBC_2.2.5>
  400c06:	68 01 00 00 00       	pushq  $0x1
  400c0b:	e9 d0 ff ff ff       	jmpq   400be0 <.plt>

0000000000400c10 <__errno_location@plt>:
  400c10:	ff 25 12 34 20 00    	jmpq   *0x203412(%rip)        # 604028 <__errno_location@GLIBC_2.2.5>
  400c16:	68 02 00 00 00       	pushq  $0x2
  400c1b:	e9 c0 ff ff ff       	jmpq   400be0 <.plt>

0000000000400c20 <srandom@plt>:
  400c20:	ff 25 0a 34 20 00    	jmpq   *0x20340a(%rip)        # 604030 <srandom@GLIBC_2.2.5>
  400c26:	68 03 00 00 00       	pushq  $0x3
  400c2b:	e9 b0 ff ff ff       	jmpq   400be0 <.plt>

0000000000400c30 <strncmp@plt>:
  400c30:	ff 25 02 34 20 00    	jmpq   *0x203402(%rip)        # 604038 <strncmp@GLIBC_2.2.5>
  400c36:	68 04 00 00 00       	pushq  $0x4
  400c3b:	e9 a0 ff ff ff       	jmpq   400be0 <.plt>

0000000000400c40 <strcpy@plt>:
  400c40:	ff 25 fa 33 20 00    	jmpq   *0x2033fa(%rip)        # 604040 <strcpy@GLIBC_2.2.5>
  400c46:	68 05 00 00 00       	pushq  $0x5
  400c4b:	e9 90 ff ff ff       	jmpq   400be0 <.plt>

0000000000400c50 <puts@plt>:
  400c50:	ff 25 f2 33 20 00    	jmpq   *0x2033f2(%rip)        # 604048 <puts@GLIBC_2.2.5>
  400c56:	68 06 00 00 00       	pushq  $0x6
  400c5b:	e9 80 ff ff ff       	jmpq   400be0 <.plt>

0000000000400c60 <write@plt>:
  400c60:	ff 25 ea 33 20 00    	jmpq   *0x2033ea(%rip)        # 604050 <write@GLIBC_2.2.5>
  400c66:	68 07 00 00 00       	pushq  $0x7
  400c6b:	e9 70 ff ff ff       	jmpq   400be0 <.plt>

0000000000400c70 <mmap@plt>:
  400c70:	ff 25 e2 33 20 00    	jmpq   *0x2033e2(%rip)        # 604058 <mmap@GLIBC_2.2.5>
  400c76:	68 08 00 00 00       	pushq  $0x8
  400c7b:	e9 60 ff ff ff       	jmpq   400be0 <.plt>

0000000000400c80 <printf@plt>:
  400c80:	ff 25 da 33 20 00    	jmpq   *0x2033da(%rip)        # 604060 <printf@GLIBC_2.2.5>
  400c86:	68 09 00 00 00       	pushq  $0x9
  400c8b:	e9 50 ff ff ff       	jmpq   400be0 <.plt>

0000000000400c90 <memset@plt>:
  400c90:	ff 25 d2 33 20 00    	jmpq   *0x2033d2(%rip)        # 604068 <memset@GLIBC_2.2.5>
  400c96:	68 0a 00 00 00       	pushq  $0xa
  400c9b:	e9 40 ff ff ff       	jmpq   400be0 <.plt>

0000000000400ca0 <alarm@plt>:
  400ca0:	ff 25 ca 33 20 00    	jmpq   *0x2033ca(%rip)        # 604070 <alarm@GLIBC_2.2.5>
  400ca6:	68 0b 00 00 00       	pushq  $0xb
  400cab:	e9 30 ff ff ff       	jmpq   400be0 <.plt>

0000000000400cb0 <close@plt>:
  400cb0:	ff 25 c2 33 20 00    	jmpq   *0x2033c2(%rip)        # 604078 <close@GLIBC_2.2.5>
  400cb6:	68 0c 00 00 00       	pushq  $0xc
  400cbb:	e9 20 ff ff ff       	jmpq   400be0 <.plt>

0000000000400cc0 <read@plt>:
  400cc0:	ff 25 ba 33 20 00    	jmpq   *0x2033ba(%rip)        # 604080 <read@GLIBC_2.2.5>
  400cc6:	68 0d 00 00 00       	pushq  $0xd
  400ccb:	e9 10 ff ff ff       	jmpq   400be0 <.plt>

0000000000400cd0 <__libc_start_main@plt>:
  400cd0:	ff 25 b2 33 20 00    	jmpq   *0x2033b2(%rip)        # 604088 <__libc_start_main@GLIBC_2.2.5>
  400cd6:	68 0e 00 00 00       	pushq  $0xe
  400cdb:	e9 00 ff ff ff       	jmpq   400be0 <.plt>

0000000000400ce0 <signal@plt>:
  400ce0:	ff 25 aa 33 20 00    	jmpq   *0x2033aa(%rip)        # 604090 <signal@GLIBC_2.2.5>
  400ce6:	68 0f 00 00 00       	pushq  $0xf
  400ceb:	e9 f0 fe ff ff       	jmpq   400be0 <.plt>

0000000000400cf0 <fprintf@plt>:
  400cf0:	ff 25 a2 33 20 00    	jmpq   *0x2033a2(%rip)        # 604098 <fprintf@GLIBC_2.2.5>
  400cf6:	68 10 00 00 00       	pushq  $0x10
  400cfb:	e9 e0 fe ff ff       	jmpq   400be0 <.plt>

0000000000400d00 <__gmon_start__@plt>:
  400d00:	ff 25 9a 33 20 00    	jmpq   *0x20339a(%rip)        # 6040a0 <__gmon_start__>
  400d06:	68 11 00 00 00       	pushq  $0x11
  400d0b:	e9 d0 fe ff ff       	jmpq   400be0 <.plt>

0000000000400d10 <strtol@plt>:
  400d10:	ff 25 92 33 20 00    	jmpq   *0x203392(%rip)        # 6040a8 <strtol@GLIBC_2.2.5>
  400d16:	68 12 00 00 00       	pushq  $0x12
  400d1b:	e9 c0 fe ff ff       	jmpq   400be0 <.plt>

0000000000400d20 <memcpy@plt>:
  400d20:	ff 25 8a 33 20 00    	jmpq   *0x20338a(%rip)        # 6040b0 <memcpy@GLIBC_2.14>
  400d26:	68 13 00 00 00       	pushq  $0x13
  400d2b:	e9 b0 fe ff ff       	jmpq   400be0 <.plt>

0000000000400d30 <inet_pton@plt>:
  400d30:	ff 25 82 33 20 00    	jmpq   *0x203382(%rip)        # 6040b8 <inet_pton@GLIBC_2.2.5>
  400d36:	68 14 00 00 00       	pushq  $0x14
  400d3b:	e9 a0 fe ff ff       	jmpq   400be0 <.plt>

0000000000400d40 <time@plt>:
  400d40:	ff 25 7a 33 20 00    	jmpq   *0x20337a(%rip)        # 6040c0 <time@GLIBC_2.2.5>
  400d46:	68 15 00 00 00       	pushq  $0x15
  400d4b:	e9 90 fe ff ff       	jmpq   400be0 <.plt>

0000000000400d50 <random@plt>:
  400d50:	ff 25 72 33 20 00    	jmpq   *0x203372(%rip)        # 6040c8 <random@GLIBC_2.2.5>
  400d56:	68 16 00 00 00       	pushq  $0x16
  400d5b:	e9 80 fe ff ff       	jmpq   400be0 <.plt>

0000000000400d60 <_IO_getc@plt>:
  400d60:	ff 25 6a 33 20 00    	jmpq   *0x20336a(%rip)        # 6040d0 <_IO_getc@GLIBC_2.2.5>
  400d66:	68 17 00 00 00       	pushq  $0x17
  400d6b:	e9 70 fe ff ff       	jmpq   400be0 <.plt>

0000000000400d70 <__isoc99_sscanf@plt>:
  400d70:	ff 25 62 33 20 00    	jmpq   *0x203362(%rip)        # 6040d8 <__isoc99_sscanf@GLIBC_2.7>
  400d76:	68 18 00 00 00       	pushq  $0x18
  400d7b:	e9 60 fe ff ff       	jmpq   400be0 <.plt>

0000000000400d80 <munmap@plt>:
  400d80:	ff 25 5a 33 20 00    	jmpq   *0x20335a(%rip)        # 6040e0 <munmap@GLIBC_2.2.5>
  400d86:	68 19 00 00 00       	pushq  $0x19
  400d8b:	e9 50 fe ff ff       	jmpq   400be0 <.plt>

0000000000400d90 <fopen@plt>:
  400d90:	ff 25 52 33 20 00    	jmpq   *0x203352(%rip)        # 6040e8 <fopen@GLIBC_2.2.5>
  400d96:	68 1a 00 00 00       	pushq  $0x1a
  400d9b:	e9 40 fe ff ff       	jmpq   400be0 <.plt>

0000000000400da0 <getopt@plt>:
  400da0:	ff 25 4a 33 20 00    	jmpq   *0x20334a(%rip)        # 6040f0 <getopt@GLIBC_2.2.5>
  400da6:	68 1b 00 00 00       	pushq  $0x1b
  400dab:	e9 30 fe ff ff       	jmpq   400be0 <.plt>

0000000000400db0 <strtoul@plt>:
  400db0:	ff 25 42 33 20 00    	jmpq   *0x203342(%rip)        # 6040f8 <strtoul@GLIBC_2.2.5>
  400db6:	68 1c 00 00 00       	pushq  $0x1c
  400dbb:	e9 20 fe ff ff       	jmpq   400be0 <.plt>

0000000000400dc0 <gethostname@plt>:
  400dc0:	ff 25 3a 33 20 00    	jmpq   *0x20333a(%rip)        # 604100 <gethostname@GLIBC_2.2.5>
  400dc6:	68 1d 00 00 00       	pushq  $0x1d
  400dcb:	e9 10 fe ff ff       	jmpq   400be0 <.plt>

0000000000400dd0 <sprintf@plt>:
  400dd0:	ff 25 32 33 20 00    	jmpq   *0x203332(%rip)        # 604108 <sprintf@GLIBC_2.2.5>
  400dd6:	68 1e 00 00 00       	pushq  $0x1e
  400ddb:	e9 00 fe ff ff       	jmpq   400be0 <.plt>

0000000000400de0 <exit@plt>:
  400de0:	ff 25 2a 33 20 00    	jmpq   *0x20332a(%rip)        # 604110 <exit@GLIBC_2.2.5>
  400de6:	68 1f 00 00 00       	pushq  $0x1f
  400deb:	e9 f0 fd ff ff       	jmpq   400be0 <.plt>

0000000000400df0 <connect@plt>:
  400df0:	ff 25 22 33 20 00    	jmpq   *0x203322(%rip)        # 604118 <connect@GLIBC_2.2.5>
  400df6:	68 20 00 00 00       	pushq  $0x20
  400dfb:	e9 e0 fd ff ff       	jmpq   400be0 <.plt>

0000000000400e00 <socket@plt>:
  400e00:	ff 25 1a 33 20 00    	jmpq   *0x20331a(%rip)        # 604120 <socket@GLIBC_2.2.5>
  400e06:	68 21 00 00 00       	pushq  $0x21
  400e0b:	e9 d0 fd ff ff       	jmpq   400be0 <.plt>

Disassembly of section .text:

0000000000400e10 <_start>:
  400e10:	31 ed                	xor    %ebp,%ebp
  400e12:	49 89 d1             	mov    %rdx,%r9
  400e15:	5e                   	pop    %rsi
  400e16:	48 89 e2             	mov    %rsp,%rdx
  400e19:	48 83 e4 f0          	and    $0xfffffffffffffff0,%rsp
  400e1d:	50                   	push   %rax
  400e1e:	54                   	push   %rsp
  400e1f:	49 c7 c0 b0 2b 40 00 	mov    $0x402bb0,%r8
  400e26:	48 c7 c1 40 2b 40 00 	mov    $0x402b40,%rcx
  400e2d:	48 c7 c7 a5 10 40 00 	mov    $0x4010a5,%rdi
  400e34:	e8 97 fe ff ff       	callq  400cd0 <__libc_start_main@plt>
  400e39:	f4                   	hlt    
  400e3a:	66 0f 1f 44 00 00    	nopw   0x0(%rax,%rax,1)

0000000000400e40 <deregister_tm_clones>:
  400e40:	b8 b7 44 60 00       	mov    $0x6044b7,%eax
  400e45:	55                   	push   %rbp
  400e46:	48 2d b0 44 60 00    	sub    $0x6044b0,%rax
  400e4c:	48 83 f8 0e          	cmp    $0xe,%rax
  400e50:	48 89 e5             	mov    %rsp,%rbp
  400e53:	77 02                	ja     400e57 <deregister_tm_clones+0x17>
  400e55:	5d                   	pop    %rbp
  400e56:	c3                   	retq   
  400e57:	b8 00 00 00 00       	mov    $0x0,%eax
  400e5c:	48 85 c0             	test   %rax,%rax
  400e5f:	74 f4                	je     400e55 <deregister_tm_clones+0x15>
  400e61:	5d                   	pop    %rbp
  400e62:	bf b0 44 60 00       	mov    $0x6044b0,%edi
  400e67:	ff e0                	jmpq   *%rax
  400e69:	0f 1f 80 00 00 00 00 	nopl   0x0(%rax)

0000000000400e70 <register_tm_clones>:
  400e70:	b8 b0 44 60 00       	mov    $0x6044b0,%eax
  400e75:	55                   	push   %rbp
  400e76:	48 2d b0 44 60 00    	sub    $0x6044b0,%rax
  400e7c:	48 c1 f8 03          	sar    $0x3,%rax
  400e80:	48 89 e5             	mov    %rsp,%rbp
  400e83:	48 89 c2             	mov    %rax,%rdx
  400e86:	48 c1 ea 3f          	shr    $0x3f,%rdx
  400e8a:	48 01 d0             	add    %rdx,%rax
  400e8d:	48 d1 f8             	sar    %rax
  400e90:	75 02                	jne    400e94 <register_tm_clones+0x24>
  400e92:	5d                   	pop    %rbp
  400e93:	c3                   	retq   
  400e94:	ba 00 00 00 00       	mov    $0x0,%edx
  400e99:	48 85 d2             	test   %rdx,%rdx
  400e9c:	74 f4                	je     400e92 <register_tm_clones+0x22>
  400e9e:	5d                   	pop    %rbp
  400e9f:	48 89 c6             	mov    %rax,%rsi
  400ea2:	bf b0 44 60 00       	mov    $0x6044b0,%edi
  400ea7:	ff e2                	jmpq   *%rdx
  400ea9:	0f 1f 80 00 00 00 00 	nopl   0x0(%rax)

0000000000400eb0 <__do_global_dtors_aux>:
  400eb0:	80 3d 21 36 20 00 00 	cmpb   $0x0,0x203621(%rip)        # 6044d8 <completed.6355>
  400eb7:	75 11                	jne    400eca <__do_global_dtors_aux+0x1a>
  400eb9:	55                   	push   %rbp
  400eba:	48 89 e5             	mov    %rsp,%rbp
  400ebd:	e8 7e ff ff ff       	callq  400e40 <deregister_tm_clones>
  400ec2:	5d                   	pop    %rbp
  400ec3:	c6 05 0e 36 20 00 01 	movb   $0x1,0x20360e(%rip)        # 6044d8 <completed.6355>
  400eca:	f3 c3                	repz retq 
  400ecc:	0f 1f 40 00          	nopl   0x0(%rax)

0000000000400ed0 <frame_dummy>:
  400ed0:	48 83 3d 48 2f 20 00 	cmpq   $0x0,0x202f48(%rip)        # 603e20 <__JCR_END__>
  400ed7:	00 
  400ed8:	74 1e                	je     400ef8 <frame_dummy+0x28>
  400eda:	b8 00 00 00 00       	mov    $0x0,%eax
  400edf:	48 85 c0             	test   %rax,%rax
  400ee2:	74 14                	je     400ef8 <frame_dummy+0x28>
  400ee4:	55                   	push   %rbp
  400ee5:	bf 20 3e 60 00       	mov    $0x603e20,%edi
  400eea:	48 89 e5             	mov    %rsp,%rbp
  400eed:	ff d0                	callq  *%rax
  400eef:	5d                   	pop    %rbp
  400ef0:	e9 7b ff ff ff       	jmpq   400e70 <register_tm_clones>
  400ef5:	0f 1f 00             	nopl   (%rax)
  400ef8:	e9 73 ff ff ff       	jmpq   400e70 <register_tm_clones>
  400efd:	0f 1f 00             	nopl   (%rax)

0000000000400f00 <usage>:
  400f00:	48 83 ec 08          	sub    $0x8,%rsp
  400f04:	48 89 fe             	mov    %rdi,%rsi
  400f07:	83 3d fa 35 20 00 00 	cmpl   $0x0,0x2035fa(%rip)        # 604508 <is_checker>
  400f0e:	74 39                	je     400f49 <usage+0x49>
  400f10:	bf d0 2b 40 00       	mov    $0x402bd0,%edi
  400f15:	b8 00 00 00 00       	mov    $0x0,%eax
  400f1a:	e8 61 fd ff ff       	callq  400c80 <printf@plt>
  400f1f:	bf 08 2c 40 00       	mov    $0x402c08,%edi
  400f24:	e8 27 fd ff ff       	callq  400c50 <puts@plt>
  400f29:	bf 40 2d 40 00       	mov    $0x402d40,%edi
  400f2e:	e8 1d fd ff ff       	callq  400c50 <puts@plt>
  400f33:	bf 30 2c 40 00       	mov    $0x402c30,%edi
  400f38:	e8 13 fd ff ff       	callq  400c50 <puts@plt>
  400f3d:	bf 5a 2d 40 00       	mov    $0x402d5a,%edi
  400f42:	e8 09 fd ff ff       	callq  400c50 <puts@plt>
  400f47:	eb 2d                	jmp    400f76 <usage+0x76>
  400f49:	bf 76 2d 40 00       	mov    $0x402d76,%edi
  400f4e:	b8 00 00 00 00       	mov    $0x0,%eax
  400f53:	e8 28 fd ff ff       	callq  400c80 <printf@plt>
  400f58:	bf 58 2c 40 00       	mov    $0x402c58,%edi
  400f5d:	e8 ee fc ff ff       	callq  400c50 <puts@plt>
  400f62:	bf 80 2c 40 00       	mov    $0x402c80,%edi
  400f67:	e8 e4 fc ff ff       	callq  400c50 <puts@plt>
  400f6c:	bf 94 2d 40 00       	mov    $0x402d94,%edi
  400f71:	e8 da fc ff ff       	callq  400c50 <puts@plt>
  400f76:	bf 00 00 00 00       	mov    $0x0,%edi
  400f7b:	e8 60 fe ff ff       	callq  400de0 <exit@plt>

0000000000400f80 <initialize_target>:
  400f80:	55                   	push   %rbp
  400f81:	53                   	push   %rbx
  400f82:	48 81 ec 08 21 00 00 	sub    $0x2108,%rsp
  400f89:	89 f5                	mov    %esi,%ebp
  400f8b:	89 3d 67 35 20 00    	mov    %edi,0x203567(%rip)        # 6044f8 <check_level>
  400f91:	8b 3d d1 31 20 00    	mov    0x2031d1(%rip),%edi        # 604168 <target_id>
  400f97:	e8 76 1b 00 00       	callq  402b12 <gencookie>
  400f9c:	89 05 62 35 20 00    	mov    %eax,0x203562(%rip)        # 604504 <cookie>
  400fa2:	89 c7                	mov    %eax,%edi
  400fa4:	e8 69 1b 00 00       	callq  402b12 <gencookie>
  400fa9:	89 05 51 35 20 00    	mov    %eax,0x203551(%rip)        # 604500 <authkey>
  400faf:	8b 05 b3 31 20 00    	mov    0x2031b3(%rip),%eax        # 604168 <target_id>
  400fb5:	8d 78 01             	lea    0x1(%rax),%edi
  400fb8:	e8 63 fc ff ff       	callq  400c20 <srandom@plt>
  400fbd:	e8 8e fd ff ff       	callq  400d50 <random@plt>
  400fc2:	89 c7                	mov    %eax,%edi
  400fc4:	e8 9f 02 00 00       	callq  401268 <scramble>
  400fc9:	89 c3                	mov    %eax,%ebx
  400fcb:	85 ed                	test   %ebp,%ebp
  400fcd:	74 18                	je     400fe7 <initialize_target+0x67>
  400fcf:	bf 00 00 00 00       	mov    $0x0,%edi
  400fd4:	e8 67 fd ff ff       	callq  400d40 <time@plt>
  400fd9:	89 c7                	mov    %eax,%edi
  400fdb:	e8 40 fc ff ff       	callq  400c20 <srandom@plt>
  400fe0:	e8 6b fd ff ff       	callq  400d50 <random@plt>
  400fe5:	eb 05                	jmp    400fec <initialize_target+0x6c>
  400fe7:	b8 00 00 00 00       	mov    $0x0,%eax
  400fec:	01 c3                	add    %eax,%ebx
  400fee:	0f b7 db             	movzwl %bx,%ebx
  400ff1:	8d 04 dd 00 01 00 00 	lea    0x100(,%rbx,8),%eax
  400ff8:	89 c0                	mov    %eax,%eax
  400ffa:	48 89 05 9f 34 20 00 	mov    %rax,0x20349f(%rip)        # 6044a0 <buf_offset>
  401001:	c6 05 20 41 20 00 63 	movb   $0x63,0x204120(%rip)        # 605128 <target_prefix>
  401008:	83 3d 99 34 20 00 00 	cmpl   $0x0,0x203499(%rip)        # 6044a8 <notify>
  40100f:	0f 84 86 00 00 00    	je     40109b <initialize_target+0x11b>
  401015:	83 3d ec 34 20 00 00 	cmpl   $0x0,0x2034ec(%rip)        # 604508 <is_checker>
  40101c:	75 7d                	jne    40109b <initialize_target+0x11b>
  40101e:	be 00 01 00 00       	mov    $0x100,%esi
  401023:	48 89 e7             	mov    %rsp,%rdi
  401026:	e8 95 fd ff ff       	callq  400dc0 <gethostname@plt>
  40102b:	85 c0                	test   %eax,%eax
  40102d:	74 25                	je     401054 <initialize_target+0xd4>
  40102f:	bf b0 2c 40 00       	mov    $0x402cb0,%edi
  401034:	e8 17 fc ff ff       	callq  400c50 <puts@plt>
  401039:	bf 08 00 00 00       	mov    $0x8,%edi
  40103e:	e8 9d fd ff ff       	callq  400de0 <exit@plt>
  401043:	48 89 e6             	mov    %rsp,%rsi
  401046:	e8 b5 fb ff ff       	callq  400c00 <strcasecmp@plt>
  40104b:	85 c0                	test   %eax,%eax
  40104d:	74 1a                	je     401069 <initialize_target+0xe9>
  40104f:	83 c3 01             	add    $0x1,%ebx
  401052:	eb 05                	jmp    401059 <initialize_target+0xd9>
  401054:	bb 00 00 00 00       	mov    $0x0,%ebx
  401059:	48 63 c3             	movslq %ebx,%rax
  40105c:	48 8b 3c c5 80 41 60 	mov    0x604180(,%rax,8),%rdi
  401063:	00 
  401064:	48 85 ff             	test   %rdi,%rdi
  401067:	75 da                	jne    401043 <initialize_target+0xc3>
  401069:	48 8d bc 24 00 01 00 	lea    0x100(%rsp),%rdi
  401070:	00 
  401071:	e8 5c 18 00 00       	callq  4028d2 <init_driver>
  401076:	85 c0                	test   %eax,%eax
  401078:	79 21                	jns    40109b <initialize_target+0x11b>
  40107a:	48 8d b4 24 00 01 00 	lea    0x100(%rsp),%rsi
  401081:	00 
  401082:	bf e8 2c 40 00       	mov    $0x402ce8,%edi
  401087:	b8 00 00 00 00       	mov    $0x0,%eax
  40108c:	e8 ef fb ff ff       	callq  400c80 <printf@plt>
  401091:	bf 08 00 00 00       	mov    $0x8,%edi
  401096:	e8 45 fd ff ff       	callq  400de0 <exit@plt>
  40109b:	48 81 c4 08 21 00 00 	add    $0x2108,%rsp
  4010a2:	5b                   	pop    %rbx
  4010a3:	5d                   	pop    %rbp
  4010a4:	c3                   	retq   

00000000004010a5 <main>:
  4010a5:	41 56                	push   %r14
  4010a7:	41 55                	push   %r13
  4010a9:	41 54                	push   %r12
  4010ab:	55                   	push   %rbp
  4010ac:	53                   	push   %rbx
  4010ad:	41 89 fc             	mov    %edi,%r12d
  4010b0:	48 89 f3             	mov    %rsi,%rbx
  4010b3:	be e1 1c 40 00       	mov    $0x401ce1,%esi
  4010b8:	bf 0b 00 00 00       	mov    $0xb,%edi
  4010bd:	e8 1e fc ff ff       	callq  400ce0 <signal@plt>
  4010c2:	be 93 1c 40 00       	mov    $0x401c93,%esi
  4010c7:	bf 07 00 00 00       	mov    $0x7,%edi
  4010cc:	e8 0f fc ff ff       	callq  400ce0 <signal@plt>
  4010d1:	be 2f 1d 40 00       	mov    $0x401d2f,%esi
  4010d6:	bf 04 00 00 00       	mov    $0x4,%edi
  4010db:	e8 00 fc ff ff       	callq  400ce0 <signal@plt>
  4010e0:	83 3d 21 34 20 00 00 	cmpl   $0x0,0x203421(%rip)        # 604508 <is_checker>
  4010e7:	74 20                	je     401109 <main+0x64>
  4010e9:	be 7d 1d 40 00       	mov    $0x401d7d,%esi
  4010ee:	bf 0e 00 00 00       	mov    $0xe,%edi
  4010f3:	e8 e8 fb ff ff       	callq  400ce0 <signal@plt>
  4010f8:	bf 05 00 00 00       	mov    $0x5,%edi
  4010fd:	e8 9e fb ff ff       	callq  400ca0 <alarm@plt>
  401102:	bd b2 2d 40 00       	mov    $0x402db2,%ebp
  401107:	eb 05                	jmp    40110e <main+0x69>
  401109:	bd ad 2d 40 00       	mov    $0x402dad,%ebp
  40110e:	48 8b 05 ab 33 20 00 	mov    0x2033ab(%rip),%rax        # 6044c0 <stdin@@GLIBC_2.2.5>
  401115:	48 89 05 d4 33 20 00 	mov    %rax,0x2033d4(%rip)        # 6044f0 <infile>
  40111c:	41 bd 00 00 00 00    	mov    $0x0,%r13d
  401122:	41 be 00 00 00 00    	mov    $0x0,%r14d
  401128:	e9 b9 00 00 00       	jmpq   4011e6 <main+0x141>
  40112d:	83 e8 61             	sub    $0x61,%eax
  401130:	3c 10                	cmp    $0x10,%al
  401132:	0f 87 93 00 00 00    	ja     4011cb <main+0x126>
  401138:	0f b6 c0             	movzbl %al,%eax
  40113b:	ff 24 c5 f8 2d 40 00 	jmpq   *0x402df8(,%rax,8)
  401142:	48 8b 3b             	mov    (%rbx),%rdi
  401145:	e8 b6 fd ff ff       	callq  400f00 <usage>
  40114a:	be 7d 30 40 00       	mov    $0x40307d,%esi
  40114f:	48 8b 3d 72 33 20 00 	mov    0x203372(%rip),%rdi        # 6044c8 <optarg@@GLIBC_2.2.5>
  401156:	e8 35 fc ff ff       	callq  400d90 <fopen@plt>
  40115b:	48 89 05 8e 33 20 00 	mov    %rax,0x20338e(%rip)        # 6044f0 <infile>
  401162:	48 85 c0             	test   %rax,%rax
  401165:	75 7f                	jne    4011e6 <main+0x141>
  401167:	48 8b 15 5a 33 20 00 	mov    0x20335a(%rip),%rdx        # 6044c8 <optarg@@GLIBC_2.2.5>
  40116e:	be ba 2d 40 00       	mov    $0x402dba,%esi
  401173:	48 8b 3d 56 33 20 00 	mov    0x203356(%rip),%rdi        # 6044d0 <stderr@@GLIBC_2.2.5>
  40117a:	e8 71 fb ff ff       	callq  400cf0 <fprintf@plt>
  40117f:	b8 01 00 00 00       	mov    $0x1,%eax
  401184:	e9 d6 00 00 00       	jmpq   40125f <main+0x1ba>
  401189:	ba 10 00 00 00       	mov    $0x10,%edx
  40118e:	be 00 00 00 00       	mov    $0x0,%esi
  401193:	48 8b 3d 2e 33 20 00 	mov    0x20332e(%rip),%rdi        # 6044c8 <optarg@@GLIBC_2.2.5>
  40119a:	e8 11 fc ff ff       	callq  400db0 <strtoul@plt>
  40119f:	41 89 c6             	mov    %eax,%r14d
  4011a2:	eb 42                	jmp    4011e6 <main+0x141>
  4011a4:	ba 0a 00 00 00       	mov    $0xa,%edx
  4011a9:	be 00 00 00 00       	mov    $0x0,%esi
  4011ae:	48 8b 3d 13 33 20 00 	mov    0x203313(%rip),%rdi        # 6044c8 <optarg@@GLIBC_2.2.5>
  4011b5:	e8 56 fb ff ff       	callq  400d10 <strtol@plt>
  4011ba:	41 89 c5             	mov    %eax,%r13d
  4011bd:	eb 27                	jmp    4011e6 <main+0x141>
  4011bf:	c7 05 df 32 20 00 00 	movl   $0x0,0x2032df(%rip)        # 6044a8 <notify>
  4011c6:	00 00 00 
  4011c9:	eb 1b                	jmp    4011e6 <main+0x141>
  4011cb:	40 0f be f6          	movsbl %sil,%esi
  4011cf:	bf d7 2d 40 00       	mov    $0x402dd7,%edi
  4011d4:	b8 00 00 00 00       	mov    $0x0,%eax
  4011d9:	e8 a2 fa ff ff       	callq  400c80 <printf@plt>
  4011de:	48 8b 3b             	mov    (%rbx),%rdi
  4011e1:	e8 1a fd ff ff       	callq  400f00 <usage>
  4011e6:	48 89 ea             	mov    %rbp,%rdx
  4011e9:	48 89 de             	mov    %rbx,%rsi
  4011ec:	44 89 e7             	mov    %r12d,%edi
  4011ef:	e8 ac fb ff ff       	callq  400da0 <getopt@plt>
  4011f4:	89 c6                	mov    %eax,%esi
  4011f6:	3c ff                	cmp    $0xff,%al
  4011f8:	0f 85 2f ff ff ff    	jne    40112d <main+0x88>
  4011fe:	be 00 00 00 00       	mov    $0x0,%esi
  401203:	44 89 ef             	mov    %r13d,%edi
  401206:	e8 75 fd ff ff       	callq  400f80 <initialize_target>
  40120b:	83 3d f6 32 20 00 00 	cmpl   $0x0,0x2032f6(%rip)        # 604508 <is_checker>
  401212:	74 25                	je     401239 <main+0x194>
  401214:	44 3b 35 e5 32 20 00 	cmp    0x2032e5(%rip),%r14d        # 604500 <authkey>
  40121b:	74 1c                	je     401239 <main+0x194>
  40121d:	44 89 f6             	mov    %r14d,%esi
  401220:	bf 10 2d 40 00       	mov    $0x402d10,%edi
  401225:	b8 00 00 00 00       	mov    $0x0,%eax
  40122a:	e8 51 fa ff ff       	callq  400c80 <printf@plt>
  40122f:	b8 00 00 00 00       	mov    $0x0,%eax
  401234:	e8 62 07 00 00       	callq  40199b <check_fail>
  401239:	8b 35 c5 32 20 00    	mov    0x2032c5(%rip),%esi        # 604504 <cookie>
  40123f:	bf ea 2d 40 00       	mov    $0x402dea,%edi
  401244:	b8 00 00 00 00       	mov    $0x0,%eax
  401249:	e8 32 fa ff ff       	callq  400c80 <printf@plt>
  40124e:	48 8b 3d 4b 32 20 00 	mov    0x20324b(%rip),%rdi        # 6044a0 <buf_offset>
  401255:	e8 f2 0b 00 00       	callq  401e4c <stable_launch>
  40125a:	b8 00 00 00 00       	mov    $0x0,%eax
  40125f:	5b                   	pop    %rbx
  401260:	5d                   	pop    %rbp
  401261:	41 5c                	pop    %r12
  401263:	41 5d                	pop    %r13
  401265:	41 5e                	pop    %r14
  401267:	c3                   	retq   

0000000000401268 <scramble>:
  401268:	b8 00 00 00 00       	mov    $0x0,%eax
  40126d:	eb 11                	jmp    401280 <scramble+0x18>
  40126f:	69 c8 84 62 00 00    	imul   $0x6284,%eax,%ecx
  401275:	01 f9                	add    %edi,%ecx
  401277:	89 c2                	mov    %eax,%edx
  401279:	89 4c 94 d0          	mov    %ecx,-0x30(%rsp,%rdx,4)
  40127d:	83 c0 01             	add    $0x1,%eax
  401280:	83 f8 09             	cmp    $0x9,%eax
  401283:	76 ea                	jbe    40126f <scramble+0x7>
  401285:	8b 44 24 dc          	mov    -0x24(%rsp),%eax
  401289:	69 c0 35 7c 00 00    	imul   $0x7c35,%eax,%eax
  40128f:	89 44 24 dc          	mov    %eax,-0x24(%rsp)
  401293:	8b 44 24 e4          	mov    -0x1c(%rsp),%eax
  401297:	69 c0 fc 1c 00 00    	imul   $0x1cfc,%eax,%eax
  40129d:	89 44 24 e4          	mov    %eax,-0x1c(%rsp)
  4012a1:	8b 44 24 e0          	mov    -0x20(%rsp),%eax
  4012a5:	69 c0 c7 10 00 00    	imul   $0x10c7,%eax,%eax
  4012ab:	89 44 24 e0          	mov    %eax,-0x20(%rsp)
  4012af:	8b 44 24 f0          	mov    -0x10(%rsp),%eax
  4012b3:	69 c0 17 77 00 00    	imul   $0x7717,%eax,%eax
  4012b9:	89 44 24 f0          	mov    %eax,-0x10(%rsp)
  4012bd:	8b 44 24 e0          	mov    -0x20(%rsp),%eax
  4012c1:	69 c0 25 44 00 00    	imul   $0x4425,%eax,%eax
  4012c7:	89 44 24 e0          	mov    %eax,-0x20(%rsp)
  4012cb:	8b 44 24 e0          	mov    -0x20(%rsp),%eax
  4012cf:	69 c0 d7 5f 00 00    	imul   $0x5fd7,%eax,%eax
  4012d5:	89 44 24 e0          	mov    %eax,-0x20(%rsp)
  4012d9:	8b 44 24 e0          	mov    -0x20(%rsp),%eax
  4012dd:	69 c0 2e a4 00 00    	imul   $0xa42e,%eax,%eax
  4012e3:	89 44 24 e0          	mov    %eax,-0x20(%rsp)
  4012e7:	8b 44 24 f4          	mov    -0xc(%rsp),%eax
  4012eb:	69 c0 ee a9 00 00    	imul   $0xa9ee,%eax,%eax
  4012f1:	89 44 24 f4          	mov    %eax,-0xc(%rsp)
  4012f5:	8b 44 24 d8          	mov    -0x28(%rsp),%eax
  4012f9:	69 c0 b5 6e 00 00    	imul   $0x6eb5,%eax,%eax
  4012ff:	89 44 24 d8          	mov    %eax,-0x28(%rsp)
  401303:	8b 44 24 dc          	mov    -0x24(%rsp),%eax
  401307:	69 c0 bb 2c 00 00    	imul   $0x2cbb,%eax,%eax
  40130d:	89 44 24 dc          	mov    %eax,-0x24(%rsp)
  401311:	8b 44 24 d4          	mov    -0x2c(%rsp),%eax
  401315:	69 c0 fb 09 00 00    	imul   $0x9fb,%eax,%eax
  40131b:	89 44 24 d4          	mov    %eax,-0x2c(%rsp)
  40131f:	8b 44 24 e0          	mov    -0x20(%rsp),%eax
  401323:	69 c0 92 83 00 00    	imul   $0x8392,%eax,%eax
  401329:	89 44 24 e0          	mov    %eax,-0x20(%rsp)
  40132d:	8b 44 24 e8          	mov    -0x18(%rsp),%eax
  401331:	69 c0 3c 45 00 00    	imul   $0x453c,%eax,%eax
  401337:	89 44 24 e8          	mov    %eax,-0x18(%rsp)
  40133b:	8b 44 24 e8          	mov    -0x18(%rsp),%eax
  40133f:	69 c0 ad b8 00 00    	imul   $0xb8ad,%eax,%eax
  401345:	89 44 24 e8          	mov    %eax,-0x18(%rsp)
  401349:	8b 44 24 e8          	mov    -0x18(%rsp),%eax
  40134d:	69 c0 b0 f3 00 00    	imul   $0xf3b0,%eax,%eax
  401353:	89 44 24 e8          	mov    %eax,-0x18(%rsp)
  401357:	8b 44 24 e4          	mov    -0x1c(%rsp),%eax
  40135b:	69 c0 f5 2a 00 00    	imul   $0x2af5,%eax,%eax
  401361:	89 44 24 e4          	mov    %eax,-0x1c(%rsp)
  401365:	8b 44 24 f4          	mov    -0xc(%rsp),%eax
  401369:	69 c0 2f 1c 00 00    	imul   $0x1c2f,%eax,%eax
  40136f:	89 44 24 f4          	mov    %eax,-0xc(%rsp)
  401373:	8b 44 24 e8          	mov    -0x18(%rsp),%eax
  401377:	69 c0 81 4e 00 00    	imul   $0x4e81,%eax,%eax
  40137d:	89 44 24 e8          	mov    %eax,-0x18(%rsp)
  401381:	8b 44 24 d0          	mov    -0x30(%rsp),%eax
  401385:	69 c0 dc f7 00 00    	imul   $0xf7dc,%eax,%eax
  40138b:	89 44 24 d0          	mov    %eax,-0x30(%rsp)
  40138f:	8b 44 24 ec          	mov    -0x14(%rsp),%eax
  401393:	69 c0 3c c3 00 00    	imul   $0xc33c,%eax,%eax
  401399:	89 44 24 ec          	mov    %eax,-0x14(%rsp)
  40139d:	8b 44 24 dc          	mov    -0x24(%rsp),%eax
  4013a1:	69 c0 68 9d 00 00    	imul   $0x9d68,%eax,%eax
  4013a7:	89 44 24 dc          	mov    %eax,-0x24(%rsp)
  4013ab:	8b 44 24 f0          	mov    -0x10(%rsp),%eax
  4013af:	69 c0 ec 00 00 00    	imul   $0xec,%eax,%eax
  4013b5:	89 44 24 f0          	mov    %eax,-0x10(%rsp)
  4013b9:	8b 44 24 e0          	mov    -0x20(%rsp),%eax
  4013bd:	69 c0 57 7b 00 00    	imul   $0x7b57,%eax,%eax
  4013c3:	89 44 24 e0          	mov    %eax,-0x20(%rsp)
  4013c7:	8b 44 24 e0          	mov    -0x20(%rsp),%eax
  4013cb:	69 c0 4b 13 00 00    	imul   $0x134b,%eax,%eax
  4013d1:	89 44 24 e0          	mov    %eax,-0x20(%rsp)
  4013d5:	8b 44 24 e4          	mov    -0x1c(%rsp),%eax
  4013d9:	69 c0 66 bd 00 00    	imul   $0xbd66,%eax,%eax
  4013df:	89 44 24 e4          	mov    %eax,-0x1c(%rsp)
  4013e3:	8b 44 24 f0          	mov    -0x10(%rsp),%eax
  4013e7:	69 c0 73 73 00 00    	imul   $0x7373,%eax,%eax
  4013ed:	89 44 24 f0          	mov    %eax,-0x10(%rsp)
  4013f1:	8b 44 24 f4          	mov    -0xc(%rsp),%eax
  4013f5:	69 c0 10 a3 00 00    	imul   $0xa310,%eax,%eax
  4013fb:	89 44 24 f4          	mov    %eax,-0xc(%rsp)
  4013ff:	8b 44 24 dc          	mov    -0x24(%rsp),%eax
  401403:	69 c0 f0 68 00 00    	imul   $0x68f0,%eax,%eax
  401409:	89 44 24 dc          	mov    %eax,-0x24(%rsp)
  40140d:	8b 44 24 ec          	mov    -0x14(%rsp),%eax
  401411:	69 c0 8e e7 00 00    	imul   $0xe78e,%eax,%eax
  401417:	89 44 24 ec          	mov    %eax,-0x14(%rsp)
  40141b:	8b 44 24 f0          	mov    -0x10(%rsp),%eax
  40141f:	69 c0 bd b0 00 00    	imul   $0xb0bd,%eax,%eax
  401425:	89 44 24 f0          	mov    %eax,-0x10(%rsp)
  401429:	8b 44 24 e8          	mov    -0x18(%rsp),%eax
  40142d:	69 c0 25 bc 00 00    	imul   $0xbc25,%eax,%eax
  401433:	89 44 24 e8          	mov    %eax,-0x18(%rsp)
  401437:	8b 44 24 e0          	mov    -0x20(%rsp),%eax
  40143b:	69 c0 24 4b 00 00    	imul   $0x4b24,%eax,%eax
  401441:	89 44 24 e0          	mov    %eax,-0x20(%rsp)
  401445:	8b 44 24 f4          	mov    -0xc(%rsp),%eax
  401449:	69 c0 a4 23 00 00    	imul   $0x23a4,%eax,%eax
  40144f:	89 44 24 f4          	mov    %eax,-0xc(%rsp)
  401453:	8b 44 24 d8          	mov    -0x28(%rsp),%eax
  401457:	69 c0 4a 05 00 00    	imul   $0x54a,%eax,%eax
  40145d:	89 44 24 d8          	mov    %eax,-0x28(%rsp)
  401461:	8b 44 24 f4          	mov    -0xc(%rsp),%eax
  401465:	69 c0 3d 5f 00 00    	imul   $0x5f3d,%eax,%eax
  40146b:	89 44 24 f4          	mov    %eax,-0xc(%rsp)
  40146f:	8b 44 24 ec          	mov    -0x14(%rsp),%eax
  401473:	69 c0 81 57 00 00    	imul   $0x5781,%eax,%eax
  401479:	89 44 24 ec          	mov    %eax,-0x14(%rsp)
  40147d:	8b 44 24 e4          	mov    -0x1c(%rsp),%eax
  401481:	69 c0 9a eb 00 00    	imul   $0xeb9a,%eax,%eax
  401487:	89 44 24 e4          	mov    %eax,-0x1c(%rsp)
  40148b:	8b 44 24 d8          	mov    -0x28(%rsp),%eax
  40148f:	69 c0 3b 3e 00 00    	imul   $0x3e3b,%eax,%eax
  401495:	89 44 24 d8          	mov    %eax,-0x28(%rsp)
  401499:	8b 44 24 e4          	mov    -0x1c(%rsp),%eax
  40149d:	69 c0 48 03 00 00    	imul   $0x348,%eax,%eax
  4014a3:	89 44 24 e4          	mov    %eax,-0x1c(%rsp)
  4014a7:	8b 44 24 f0          	mov    -0x10(%rsp),%eax
  4014ab:	69 c0 fe 50 00 00    	imul   $0x50fe,%eax,%eax
  4014b1:	89 44 24 f0          	mov    %eax,-0x10(%rsp)
  4014b5:	8b 44 24 f0          	mov    -0x10(%rsp),%eax
  4014b9:	69 c0 8e 91 00 00    	imul   $0x918e,%eax,%eax
  4014bf:	89 44 24 f0          	mov    %eax,-0x10(%rsp)
  4014c3:	8b 44 24 d8          	mov    -0x28(%rsp),%eax
  4014c7:	69 c0 10 88 00 00    	imul   $0x8810,%eax,%eax
  4014cd:	89 44 24 d8          	mov    %eax,-0x28(%rsp)
  4014d1:	8b 44 24 d0          	mov    -0x30(%rsp),%eax
  4014d5:	69 c0 77 bb 00 00    	imul   $0xbb77,%eax,%eax
  4014db:	89 44 24 d0          	mov    %eax,-0x30(%rsp)
  4014df:	8b 44 24 e4          	mov    -0x1c(%rsp),%eax
  4014e3:	69 c0 eb 1c 00 00    	imul   $0x1ceb,%eax,%eax
  4014e9:	89 44 24 e4          	mov    %eax,-0x1c(%rsp)
  4014ed:	8b 44 24 f4          	mov    -0xc(%rsp),%eax
  4014f1:	69 c0 9d 12 00 00    	imul   $0x129d,%eax,%eax
  4014f7:	89 44 24 f4          	mov    %eax,-0xc(%rsp)
  4014fb:	8b 44 24 e0          	mov    -0x20(%rsp),%eax
  4014ff:	69 c0 44 7e 00 00    	imul   $0x7e44,%eax,%eax
  401505:	89 44 24 e0          	mov    %eax,-0x20(%rsp)
  401509:	8b 44 24 d8          	mov    -0x28(%rsp),%eax
  40150d:	69 c0 5b a9 00 00    	imul   $0xa95b,%eax,%eax
  401513:	89 44 24 d8          	mov    %eax,-0x28(%rsp)
  401517:	8b 44 24 dc          	mov    -0x24(%rsp),%eax
  40151b:	69 c0 16 a7 00 00    	imul   $0xa716,%eax,%eax
  401521:	89 44 24 dc          	mov    %eax,-0x24(%rsp)
  401525:	8b 44 24 dc          	mov    -0x24(%rsp),%eax
  401529:	69 c0 0d 63 00 00    	imul   $0x630d,%eax,%eax
  40152f:	89 44 24 dc          	mov    %eax,-0x24(%rsp)
  401533:	8b 44 24 d8          	mov    -0x28(%rsp),%eax
  401537:	69 c0 7f e8 00 00    	imul   $0xe87f,%eax,%eax
  40153d:	89 44 24 d8          	mov    %eax,-0x28(%rsp)
  401541:	8b 44 24 d4          	mov    -0x2c(%rsp),%eax
  401545:	69 c0 e8 74 00 00    	imul   $0x74e8,%eax,%eax
  40154b:	89 44 24 d4          	mov    %eax,-0x2c(%rsp)
  40154f:	8b 44 24 f0          	mov    -0x10(%rsp),%eax
  401553:	69 c0 ef be 00 00    	imul   $0xbeef,%eax,%eax
  401559:	89 44 24 f0          	mov    %eax,-0x10(%rsp)
  40155d:	8b 44 24 e8          	mov    -0x18(%rsp),%eax
  401561:	69 c0 6e 98 00 00    	imul   $0x986e,%eax,%eax
  401567:	89 44 24 e8          	mov    %eax,-0x18(%rsp)
  40156b:	8b 44 24 f0          	mov    -0x10(%rsp),%eax
  40156f:	69 c0 74 c7 00 00    	imul   $0xc774,%eax,%eax
  401575:	89 44 24 f0          	mov    %eax,-0x10(%rsp)
  401579:	8b 44 24 d4          	mov    -0x2c(%rsp),%eax
  40157d:	69 c0 b1 4e 00 00    	imul   $0x4eb1,%eax,%eax
  401583:	89 44 24 d4          	mov    %eax,-0x2c(%rsp)
  401587:	8b 44 24 ec          	mov    -0x14(%rsp),%eax
  40158b:	69 c0 65 5c 00 00    	imul   $0x5c65,%eax,%eax
  401591:	89 44 24 ec          	mov    %eax,-0x14(%rsp)
  401595:	8b 44 24 e4          	mov    -0x1c(%rsp),%eax
  401599:	69 c0 e5 dc 00 00    	imul   $0xdce5,%eax,%eax
  40159f:	89 44 24 e4          	mov    %eax,-0x1c(%rsp)
  4015a3:	8b 44 24 d0          	mov    -0x30(%rsp),%eax
  4015a7:	69 c0 de 14 00 00    	imul   $0x14de,%eax,%eax
  4015ad:	89 44 24 d0          	mov    %eax,-0x30(%rsp)
  4015b1:	8b 44 24 ec          	mov    -0x14(%rsp),%eax
  4015b5:	69 c0 76 d5 00 00    	imul   $0xd576,%eax,%eax
  4015bb:	89 44 24 ec          	mov    %eax,-0x14(%rsp)
  4015bf:	8b 44 24 e4          	mov    -0x1c(%rsp),%eax
  4015c3:	69 c0 62 3b 00 00    	imul   $0x3b62,%eax,%eax
  4015c9:	89 44 24 e4          	mov    %eax,-0x1c(%rsp)
  4015cd:	8b 44 24 e0          	mov    -0x20(%rsp),%eax
  4015d1:	69 c0 72 ff 00 00    	imul   $0xff72,%eax,%eax
  4015d7:	89 44 24 e0          	mov    %eax,-0x20(%rsp)
  4015db:	8b 44 24 e0          	mov    -0x20(%rsp),%eax
  4015df:	69 c0 d6 b6 00 00    	imul   $0xb6d6,%eax,%eax
  4015e5:	89 44 24 e0          	mov    %eax,-0x20(%rsp)
  4015e9:	8b 44 24 d8          	mov    -0x28(%rsp),%eax
  4015ed:	69 c0 0e 83 00 00    	imul   $0x830e,%eax,%eax
  4015f3:	89 44 24 d8          	mov    %eax,-0x28(%rsp)
  4015f7:	8b 44 24 f4          	mov    -0xc(%rsp),%eax
  4015fb:	69 c0 cd 75 00 00    	imul   $0x75cd,%eax,%eax
  401601:	89 44 24 f4          	mov    %eax,-0xc(%rsp)
  401605:	8b 44 24 ec          	mov    -0x14(%rsp),%eax
  401609:	69 c0 4d 0a 00 00    	imul   $0xa4d,%eax,%eax
  40160f:	89 44 24 ec          	mov    %eax,-0x14(%rsp)
  401613:	8b 44 24 f4          	mov    -0xc(%rsp),%eax
  401617:	69 c0 65 a8 00 00    	imul   $0xa865,%eax,%eax
  40161d:	89 44 24 f4          	mov    %eax,-0xc(%rsp)
  401621:	8b 44 24 d8          	mov    -0x28(%rsp),%eax
  401625:	69 c0 4e 9e 00 00    	imul   $0x9e4e,%eax,%eax
  40162b:	89 44 24 d8          	mov    %eax,-0x28(%rsp)
  40162f:	8b 44 24 e0          	mov    -0x20(%rsp),%eax
  401633:	69 c0 b8 df 00 00    	imul   $0xdfb8,%eax,%eax
  401639:	89 44 24 e0          	mov    %eax,-0x20(%rsp)
  40163d:	8b 44 24 d0          	mov    -0x30(%rsp),%eax
  401641:	69 c0 7e 64 00 00    	imul   $0x647e,%eax,%eax
  401647:	89 44 24 d0          	mov    %eax,-0x30(%rsp)
  40164b:	8b 44 24 e0          	mov    -0x20(%rsp),%eax
  40164f:	69 c0 73 d2 00 00    	imul   $0xd273,%eax,%eax
  401655:	89 44 24 e0          	mov    %eax,-0x20(%rsp)
  401659:	8b 44 24 d8          	mov    -0x28(%rsp),%eax
  40165d:	69 c0 9f bf 00 00    	imul   $0xbf9f,%eax,%eax
  401663:	89 44 24 d8          	mov    %eax,-0x28(%rsp)
  401667:	8b 44 24 e0          	mov    -0x20(%rsp),%eax
  40166b:	69 c0 6f 93 00 00    	imul   $0x936f,%eax,%eax
  401671:	89 44 24 e0          	mov    %eax,-0x20(%rsp)
  401675:	8b 44 24 dc          	mov    -0x24(%rsp),%eax
  401679:	69 c0 4d 13 00 00    	imul   $0x134d,%eax,%eax
  40167f:	89 44 24 dc          	mov    %eax,-0x24(%rsp)
  401683:	8b 44 24 e4          	mov    -0x1c(%rsp),%eax
  401687:	69 c0 e1 34 00 00    	imul   $0x34e1,%eax,%eax
  40168d:	89 44 24 e4          	mov    %eax,-0x1c(%rsp)
  401691:	8b 44 24 dc          	mov    -0x24(%rsp),%eax
  401695:	69 c0 17 da 00 00    	imul   $0xda17,%eax,%eax
  40169b:	89 44 24 dc          	mov    %eax,-0x24(%rsp)
  40169f:	8b 44 24 ec          	mov    -0x14(%rsp),%eax
  4016a3:	69 c0 d7 d0 00 00    	imul   $0xd0d7,%eax,%eax
  4016a9:	89 44 24 ec          	mov    %eax,-0x14(%rsp)
  4016ad:	8b 44 24 dc          	mov    -0x24(%rsp),%eax
  4016b1:	69 c0 e9 29 00 00    	imul   $0x29e9,%eax,%eax
  4016b7:	89 44 24 dc          	mov    %eax,-0x24(%rsp)
  4016bb:	8b 44 24 e4          	mov    -0x1c(%rsp),%eax
  4016bf:	69 c0 57 82 00 00    	imul   $0x8257,%eax,%eax
  4016c5:	89 44 24 e4          	mov    %eax,-0x1c(%rsp)
  4016c9:	8b 44 24 d4          	mov    -0x2c(%rsp),%eax
  4016cd:	69 c0 99 e5 00 00    	imul   $0xe599,%eax,%eax
  4016d3:	89 44 24 d4          	mov    %eax,-0x2c(%rsp)
  4016d7:	8b 44 24 dc          	mov    -0x24(%rsp),%eax
  4016db:	69 c0 12 93 00 00    	imul   $0x9312,%eax,%eax
  4016e1:	89 44 24 dc          	mov    %eax,-0x24(%rsp)
  4016e5:	8b 44 24 ec          	mov    -0x14(%rsp),%eax
  4016e9:	69 c0 72 56 00 00    	imul   $0x5672,%eax,%eax
  4016ef:	89 44 24 ec          	mov    %eax,-0x14(%rsp)
  4016f3:	8b 44 24 f0          	mov    -0x10(%rsp),%eax
  4016f7:	69 c0 1c 6f 00 00    	imul   $0x6f1c,%eax,%eax
  4016fd:	89 44 24 f0          	mov    %eax,-0x10(%rsp)
  401701:	8b 44 24 e0          	mov    -0x20(%rsp),%eax
  401705:	69 c0 cb a2 00 00    	imul   $0xa2cb,%eax,%eax
  40170b:	89 44 24 e0          	mov    %eax,-0x20(%rsp)
  40170f:	8b 44 24 d4          	mov    -0x2c(%rsp),%eax
  401713:	69 c0 7c 2b 00 00    	imul   $0x2b7c,%eax,%eax
  401719:	89 44 24 d4          	mov    %eax,-0x2c(%rsp)
  40171d:	8b 44 24 f4          	mov    -0xc(%rsp),%eax
  401721:	69 c0 01 f6 00 00    	imul   $0xf601,%eax,%eax
  401727:	89 44 24 f4          	mov    %eax,-0xc(%rsp)
  40172b:	8b 44 24 d0          	mov    -0x30(%rsp),%eax
  40172f:	69 c0 79 ba 00 00    	imul   $0xba79,%eax,%eax
  401735:	89 44 24 d0          	mov    %eax,-0x30(%rsp)
  401739:	8b 44 24 d4          	mov    -0x2c(%rsp),%eax
  40173d:	69 c0 c7 2c 00 00    	imul   $0x2cc7,%eax,%eax
  401743:	89 44 24 d4          	mov    %eax,-0x2c(%rsp)
  401747:	8b 44 24 f4          	mov    -0xc(%rsp),%eax
  40174b:	69 c0 25 52 00 00    	imul   $0x5225,%eax,%eax
  401751:	89 44 24 f4          	mov    %eax,-0xc(%rsp)
  401755:	8b 44 24 d8          	mov    -0x28(%rsp),%eax
  401759:	69 c0 36 f6 00 00    	imul   $0xf636,%eax,%eax
  40175f:	89 44 24 d8          	mov    %eax,-0x28(%rsp)
  401763:	8b 44 24 ec          	mov    -0x14(%rsp),%eax
  401767:	69 c0 d8 28 00 00    	imul   $0x28d8,%eax,%eax
  40176d:	89 44 24 ec          	mov    %eax,-0x14(%rsp)
  401771:	ba 00 00 00 00       	mov    $0x0,%edx
  401776:	b8 00 00 00 00       	mov    $0x0,%eax
  40177b:	eb 0b                	jmp    401788 <scramble+0x520>
  40177d:	89 d1                	mov    %edx,%ecx
  40177f:	8b 4c 8c d0          	mov    -0x30(%rsp,%rcx,4),%ecx
  401783:	01 c8                	add    %ecx,%eax
  401785:	83 c2 01             	add    $0x1,%edx
  401788:	83 fa 09             	cmp    $0x9,%edx
  40178b:	76 f0                	jbe    40177d <scramble+0x515>
  40178d:	f3 c3                	repz retq 

000000000040178f <getbuf>:
  40178f:	48 83 ec 28          	sub    $0x28,%rsp
  401793:	48 89 e7             	mov    %rsp,%rdi
  401796:	e8 2f 02 00 00       	callq  4019ca <Gets>
  40179b:	b8 01 00 00 00       	mov    $0x1,%eax
  4017a0:	48 83 c4 28          	add    $0x28,%rsp
  4017a4:	c3                   	retq   

00000000004017a5 <touch1>:
  4017a5:	48 83 ec 08          	sub    $0x8,%rsp
  4017a9:	c7 05 49 2d 20 00 01 	movl   $0x1,0x202d49(%rip)        # 6044fc <vlevel>
  4017b0:	00 00 00 
  4017b3:	bf d1 2e 40 00       	mov    $0x402ed1,%edi
  4017b8:	e8 93 f4 ff ff       	callq  400c50 <puts@plt>
  4017bd:	bf 01 00 00 00       	mov    $0x1,%edi
  4017c2:	e8 f2 03 00 00       	callq  401bb9 <validate>
  4017c7:	bf 00 00 00 00       	mov    $0x0,%edi
  4017cc:	e8 0f f6 ff ff       	callq  400de0 <exit@plt>

00000000004017d1 <touch2>:
  4017d1:	48 83 ec 08          	sub    $0x8,%rsp
  4017d5:	89 fe                	mov    %edi,%esi
  4017d7:	c7 05 1b 2d 20 00 02 	movl   $0x2,0x202d1b(%rip)        # 6044fc <vlevel>
  4017de:	00 00 00 
  4017e1:	3b 3d 1d 2d 20 00    	cmp    0x202d1d(%rip),%edi        # 604504 <cookie>
  4017e7:	75 1b                	jne    401804 <touch2+0x33>
  4017e9:	bf f8 2e 40 00       	mov    $0x402ef8,%edi
  4017ee:	b8 00 00 00 00       	mov    $0x0,%eax
  4017f3:	e8 88 f4 ff ff       	callq  400c80 <printf@plt>
  4017f8:	bf 02 00 00 00       	mov    $0x2,%edi
  4017fd:	e8 b7 03 00 00       	callq  401bb9 <validate>
  401802:	eb 19                	jmp    40181d <touch2+0x4c>
  401804:	bf 20 2f 40 00       	mov    $0x402f20,%edi
  401809:	b8 00 00 00 00       	mov    $0x0,%eax
  40180e:	e8 6d f4 ff ff       	callq  400c80 <printf@plt>
  401813:	bf 02 00 00 00       	mov    $0x2,%edi
  401818:	e8 4e 04 00 00       	callq  401c6b <fail>
  40181d:	bf 00 00 00 00       	mov    $0x0,%edi
  401822:	e8 b9 f5 ff ff       	callq  400de0 <exit@plt>

0000000000401827 <hexmatch>:
  401827:	41 54                	push   %r12
  401829:	55                   	push   %rbp
  40182a:	53                   	push   %rbx
  40182b:	48 83 ec 70          	sub    $0x70,%rsp
  40182f:	41 89 fc             	mov    %edi,%r12d
  401832:	48 89 f5             	mov    %rsi,%rbp
  401835:	e8 16 f5 ff ff       	callq  400d50 <random@plt>
  40183a:	48 89 c1             	mov    %rax,%rcx
  40183d:	48 ba 0b d7 a3 70 3d 	movabs $0xa3d70a3d70a3d70b,%rdx
  401844:	0a d7 a3 
  401847:	48 f7 ea             	imul   %rdx
  40184a:	48 8d 04 0a          	lea    (%rdx,%rcx,1),%rax
  40184e:	48 c1 f8 06          	sar    $0x6,%rax
  401852:	48 89 ce             	mov    %rcx,%rsi
  401855:	48 c1 fe 3f          	sar    $0x3f,%rsi
  401859:	48 29 f0             	sub    %rsi,%rax
  40185c:	48 8d 04 80          	lea    (%rax,%rax,4),%rax
  401860:	48 8d 04 80          	lea    (%rax,%rax,4),%rax
  401864:	48 c1 e0 02          	shl    $0x2,%rax
  401868:	48 29 c1             	sub    %rax,%rcx
  40186b:	48 8d 1c 0c          	lea    (%rsp,%rcx,1),%rbx
  40186f:	44 89 e2             	mov    %r12d,%edx
  401872:	be ee 2e 40 00       	mov    $0x402eee,%esi
  401877:	48 89 df             	mov    %rbx,%rdi
  40187a:	b8 00 00 00 00       	mov    $0x0,%eax
  40187f:	e8 4c f5 ff ff       	callq  400dd0 <sprintf@plt>
  401884:	ba 09 00 00 00       	mov    $0x9,%edx
  401889:	48 89 de             	mov    %rbx,%rsi
  40188c:	48 89 ef             	mov    %rbp,%rdi
  40188f:	e8 9c f3 ff ff       	callq  400c30 <strncmp@plt>
  401894:	85 c0                	test   %eax,%eax
  401896:	0f 94 c0             	sete   %al
  401899:	0f b6 c0             	movzbl %al,%eax
  40189c:	48 83 c4 70          	add    $0x70,%rsp
  4018a0:	5b                   	pop    %rbx
  4018a1:	5d                   	pop    %rbp
  4018a2:	41 5c                	pop    %r12
  4018a4:	c3                   	retq   

00000000004018a5 <touch3>:
  4018a5:	53                   	push   %rbx
  4018a6:	48 89 fb             	mov    %rdi,%rbx
  4018a9:	c7 05 49 2c 20 00 03 	movl   $0x3,0x202c49(%rip)        # 6044fc <vlevel>
  4018b0:	00 00 00 
  4018b3:	48 89 fe             	mov    %rdi,%rsi
  4018b6:	8b 3d 48 2c 20 00    	mov    0x202c48(%rip),%edi        # 604504 <cookie>
  4018bc:	e8 66 ff ff ff       	callq  401827 <hexmatch>
  4018c1:	85 c0                	test   %eax,%eax
  4018c3:	74 1e                	je     4018e3 <touch3+0x3e>
  4018c5:	48 89 de             	mov    %rbx,%rsi
  4018c8:	bf 48 2f 40 00       	mov    $0x402f48,%edi
  4018cd:	b8 00 00 00 00       	mov    $0x0,%eax
  4018d2:	e8 a9 f3 ff ff       	callq  400c80 <printf@plt>
  4018d7:	bf 03 00 00 00       	mov    $0x3,%edi
  4018dc:	e8 d8 02 00 00       	callq  401bb9 <validate>
  4018e1:	eb 1c                	jmp    4018ff <touch3+0x5a>
  4018e3:	48 89 de             	mov    %rbx,%rsi
  4018e6:	bf 70 2f 40 00       	mov    $0x402f70,%edi
  4018eb:	b8 00 00 00 00       	mov    $0x0,%eax
  4018f0:	e8 8b f3 ff ff       	callq  400c80 <printf@plt>
  4018f5:	bf 03 00 00 00       	mov    $0x3,%edi
  4018fa:	e8 6c 03 00 00       	callq  401c6b <fail>
  4018ff:	bf 00 00 00 00       	mov    $0x0,%edi
  401904:	e8 d7 f4 ff ff       	callq  400de0 <exit@plt>

0000000000401909 <test>:
  401909:	48 83 ec 08          	sub    $0x8,%rsp
  40190d:	b8 00 00 00 00       	mov    $0x0,%eax
  401912:	e8 78 fe ff ff       	callq  40178f <getbuf>
  401917:	89 c6                	mov    %eax,%esi
  401919:	bf 98 2f 40 00       	mov    $0x402f98,%edi
  40191e:	b8 00 00 00 00       	mov    $0x0,%eax
  401923:	e8 58 f3 ff ff       	callq  400c80 <printf@plt>
  401928:	48 83 c4 08          	add    $0x8,%rsp
  40192c:	c3                   	retq   
  40192d:	0f 1f 00             	nopl   (%rax)

0000000000401930 <save_char>:
  401930:	8b 05 ee 37 20 00    	mov    0x2037ee(%rip),%eax        # 605124 <gets_cnt>
  401936:	3d ff 03 00 00       	cmp    $0x3ff,%eax
  40193b:	7f 49                	jg     401986 <save_char+0x56>
  40193d:	8d 14 40             	lea    (%rax,%rax,2),%edx
  401940:	89 f9                	mov    %edi,%ecx
  401942:	c0 e9 04             	shr    $0x4,%cl
  401945:	83 e1 0f             	and    $0xf,%ecx
  401948:	0f b6 b1 c0 32 40 00 	movzbl 0x4032c0(%rcx),%esi
  40194f:	48 63 ca             	movslq %edx,%rcx
  401952:	40 88 b1 20 45 60 00 	mov    %sil,0x604520(%rcx)
  401959:	8d 4a 01             	lea    0x1(%rdx),%ecx
  40195c:	83 e7 0f             	and    $0xf,%edi
  40195f:	0f b6 b7 c0 32 40 00 	movzbl 0x4032c0(%rdi),%esi
  401966:	48 63 c9             	movslq %ecx,%rcx
  401969:	40 88 b1 20 45 60 00 	mov    %sil,0x604520(%rcx)
  401970:	83 c2 02             	add    $0x2,%edx
  401973:	48 63 d2             	movslq %edx,%rdx
  401976:	c6 82 20 45 60 00 20 	movb   $0x20,0x604520(%rdx)
  40197d:	83 c0 01             	add    $0x1,%eax
  401980:	89 05 9e 37 20 00    	mov    %eax,0x20379e(%rip)        # 605124 <gets_cnt>
  401986:	f3 c3                	repz retq 

0000000000401988 <save_term>:
  401988:	8b 05 96 37 20 00    	mov    0x203796(%rip),%eax        # 605124 <gets_cnt>
  40198e:	8d 04 40             	lea    (%rax,%rax,2),%eax
  401991:	48 98                	cltq   
  401993:	c6 80 20 45 60 00 00 	movb   $0x0,0x604520(%rax)
  40199a:	c3                   	retq   

000000000040199b <check_fail>:
  40199b:	48 83 ec 08          	sub    $0x8,%rsp
  40199f:	0f be 35 82 37 20 00 	movsbl 0x203782(%rip),%esi        # 605128 <target_prefix>
  4019a6:	b9 20 45 60 00       	mov    $0x604520,%ecx
  4019ab:	8b 15 47 2b 20 00    	mov    0x202b47(%rip),%edx        # 6044f8 <check_level>
  4019b1:	bf bb 2f 40 00       	mov    $0x402fbb,%edi
  4019b6:	b8 00 00 00 00       	mov    $0x0,%eax
  4019bb:	e8 c0 f2 ff ff       	callq  400c80 <printf@plt>
  4019c0:	bf 01 00 00 00       	mov    $0x1,%edi
  4019c5:	e8 16 f4 ff ff       	callq  400de0 <exit@plt>

00000000004019ca <Gets>:
  4019ca:	41 54                	push   %r12
  4019cc:	55                   	push   %rbp
  4019cd:	53                   	push   %rbx
  4019ce:	49 89 fc             	mov    %rdi,%r12
  4019d1:	c7 05 49 37 20 00 00 	movl   $0x0,0x203749(%rip)        # 605124 <gets_cnt>
  4019d8:	00 00 00 
  4019db:	48 89 fb             	mov    %rdi,%rbx
  4019de:	eb 11                	jmp    4019f1 <Gets+0x27>
  4019e0:	48 8d 6b 01          	lea    0x1(%rbx),%rbp
  4019e4:	88 03                	mov    %al,(%rbx)
  4019e6:	0f b6 f8             	movzbl %al,%edi
  4019e9:	e8 42 ff ff ff       	callq  401930 <save_char>
  4019ee:	48 89 eb             	mov    %rbp,%rbx
  4019f1:	48 8b 3d f8 2a 20 00 	mov    0x202af8(%rip),%rdi        # 6044f0 <infile>
  4019f8:	e8 63 f3 ff ff       	callq  400d60 <_IO_getc@plt>
  4019fd:	83 f8 ff             	cmp    $0xffffffff,%eax
  401a00:	74 05                	je     401a07 <Gets+0x3d>
  401a02:	83 f8 0a             	cmp    $0xa,%eax
  401a05:	75 d9                	jne    4019e0 <Gets+0x16>
  401a07:	c6 03 00             	movb   $0x0,(%rbx)
  401a0a:	b8 00 00 00 00       	mov    $0x0,%eax
  401a0f:	e8 74 ff ff ff       	callq  401988 <save_term>
  401a14:	4c 89 e0             	mov    %r12,%rax
  401a17:	5b                   	pop    %rbx
  401a18:	5d                   	pop    %rbp
  401a19:	41 5c                	pop    %r12
  401a1b:	c3                   	retq   

0000000000401a1c <notify_server>:
  401a1c:	83 3d e5 2a 20 00 00 	cmpl   $0x0,0x202ae5(%rip)        # 604508 <is_checker>
  401a23:	0f 85 8e 01 00 00    	jne    401bb7 <notify_server+0x19b>
  401a29:	53                   	push   %rbx
  401a2a:	48 81 ec 10 40 00 00 	sub    $0x4010,%rsp
  401a31:	89 fb                	mov    %edi,%ebx
  401a33:	8b 05 eb 36 20 00    	mov    0x2036eb(%rip),%eax        # 605124 <gets_cnt>
  401a39:	83 c0 64             	add    $0x64,%eax
  401a3c:	3d 00 20 00 00       	cmp    $0x2000,%eax
  401a41:	7e 19                	jle    401a5c <notify_server+0x40>
  401a43:	bf f0 30 40 00       	mov    $0x4030f0,%edi
  401a48:	b8 00 00 00 00       	mov    $0x0,%eax
  401a4d:	e8 2e f2 ff ff       	callq  400c80 <printf@plt>
  401a52:	bf 01 00 00 00       	mov    $0x1,%edi
  401a57:	e8 84 f3 ff ff       	callq  400de0 <exit@plt>
  401a5c:	44 0f be 0d c4 36 20 	movsbl 0x2036c4(%rip),%r9d        # 605128 <target_prefix>
  401a63:	00 
  401a64:	83 3d 3d 2a 20 00 00 	cmpl   $0x0,0x202a3d(%rip)        # 6044a8 <notify>
  401a6b:	74 09                	je     401a76 <notify_server+0x5a>
  401a6d:	44 8b 05 8c 2a 20 00 	mov    0x202a8c(%rip),%r8d        # 604500 <authkey>
  401a74:	eb 06                	jmp    401a7c <notify_server+0x60>
  401a76:	41 b8 ff ff ff ff    	mov    $0xffffffff,%r8d
  401a7c:	85 db                	test   %ebx,%ebx
  401a7e:	74 07                	je     401a87 <notify_server+0x6b>
  401a80:	b9 d1 2f 40 00       	mov    $0x402fd1,%ecx
  401a85:	eb 05                	jmp    401a8c <notify_server+0x70>
  401a87:	b9 d6 2f 40 00       	mov    $0x402fd6,%ecx
  401a8c:	48 c7 44 24 08 20 45 	movq   $0x604520,0x8(%rsp)
  401a93:	60 00 
  401a95:	89 34 24             	mov    %esi,(%rsp)
  401a98:	8b 15 ca 26 20 00    	mov    0x2026ca(%rip),%edx        # 604168 <target_id>
  401a9e:	be db 2f 40 00       	mov    $0x402fdb,%esi
  401aa3:	48 8d bc 24 10 20 00 	lea    0x2010(%rsp),%rdi
  401aaa:	00 
  401aab:	b8 00 00 00 00       	mov    $0x0,%eax
  401ab0:	e8 1b f3 ff ff       	callq  400dd0 <sprintf@plt>
  401ab5:	83 3d ec 29 20 00 00 	cmpl   $0x0,0x2029ec(%rip)        # 6044a8 <notify>
  401abc:	74 78                	je     401b36 <notify_server+0x11a>
  401abe:	85 db                	test   %ebx,%ebx
  401ac0:	74 68                	je     401b2a <notify_server+0x10e>
  401ac2:	4c 8d 4c 24 10       	lea    0x10(%rsp),%r9
  401ac7:	41 b8 00 00 00 00    	mov    $0x0,%r8d
  401acd:	48 8d 8c 24 10 20 00 	lea    0x2010(%rsp),%rcx
  401ad4:	00 
  401ad5:	48 8b 15 94 26 20 00 	mov    0x202694(%rip),%rdx        # 604170 <lab>
  401adc:	48 8b 35 95 26 20 00 	mov    0x202695(%rip),%rsi        # 604178 <course>
  401ae3:	48 8b 3d 76 26 20 00 	mov    0x202676(%rip),%rdi        # 604160 <user_id>
  401aea:	e8 83 0f 00 00       	callq  402a72 <driver_post>
  401aef:	85 c0                	test   %eax,%eax
  401af1:	79 1e                	jns    401b11 <notify_server+0xf5>
  401af3:	48 8d 74 24 10       	lea    0x10(%rsp),%rsi
  401af8:	bf f7 2f 40 00       	mov    $0x402ff7,%edi
  401afd:	b8 00 00 00 00       	mov    $0x0,%eax
  401b02:	e8 79 f1 ff ff       	callq  400c80 <printf@plt>
  401b07:	bf 01 00 00 00       	mov    $0x1,%edi
  401b0c:	e8 cf f2 ff ff       	callq  400de0 <exit@plt>
  401b11:	bf 20 31 40 00       	mov    $0x403120,%edi
  401b16:	e8 35 f1 ff ff       	callq  400c50 <puts@plt>
  401b1b:	bf 03 30 40 00       	mov    $0x403003,%edi
  401b20:	e8 2b f1 ff ff       	callq  400c50 <puts@plt>
  401b25:	e9 85 00 00 00       	jmpq   401baf <notify_server+0x193>
  401b2a:	bf 0d 30 40 00       	mov    $0x40300d,%edi
  401b2f:	e8 1c f1 ff ff       	callq  400c50 <puts@plt>
  401b34:	eb 79                	jmp    401baf <notify_server+0x193>
  401b36:	85 db                	test   %ebx,%ebx
  401b38:	74 08                	je     401b42 <notify_server+0x126>
  401b3a:	be d1 2f 40 00       	mov    $0x402fd1,%esi
  401b3f:	90                   	nop
  401b40:	eb 05                	jmp    401b47 <notify_server+0x12b>
  401b42:	be d6 2f 40 00       	mov    $0x402fd6,%esi
  401b47:	bf 58 31 40 00       	mov    $0x403158,%edi
  401b4c:	b8 00 00 00 00       	mov    $0x0,%eax
  401b51:	e8 2a f1 ff ff       	callq  400c80 <printf@plt>
  401b56:	48 8b 35 03 26 20 00 	mov    0x202603(%rip),%rsi        # 604160 <user_id>
  401b5d:	bf 14 30 40 00       	mov    $0x403014,%edi
  401b62:	b8 00 00 00 00       	mov    $0x0,%eax
  401b67:	e8 14 f1 ff ff       	callq  400c80 <printf@plt>
  401b6c:	48 8b 35 05 26 20 00 	mov    0x202605(%rip),%rsi        # 604178 <course>
  401b73:	bf 21 30 40 00       	mov    $0x403021,%edi
  401b78:	b8 00 00 00 00       	mov    $0x0,%eax
  401b7d:	e8 fe f0 ff ff       	callq  400c80 <printf@plt>
  401b82:	48 8b 35 e7 25 20 00 	mov    0x2025e7(%rip),%rsi        # 604170 <lab>
  401b89:	bf 2d 30 40 00       	mov    $0x40302d,%edi
  401b8e:	b8 00 00 00 00       	mov    $0x0,%eax
  401b93:	e8 e8 f0 ff ff       	callq  400c80 <printf@plt>
  401b98:	48 8d b4 24 10 20 00 	lea    0x2010(%rsp),%rsi
  401b9f:	00 
  401ba0:	bf 36 30 40 00       	mov    $0x403036,%edi
  401ba5:	b8 00 00 00 00       	mov    $0x0,%eax
  401baa:	e8 d1 f0 ff ff       	callq  400c80 <printf@plt>
  401baf:	48 81 c4 10 40 00 00 	add    $0x4010,%rsp
  401bb6:	5b                   	pop    %rbx
  401bb7:	f3 c3                	repz retq 

0000000000401bb9 <validate>:
  401bb9:	53                   	push   %rbx
  401bba:	89 fb                	mov    %edi,%ebx
  401bbc:	83 3d 45 29 20 00 00 	cmpl   $0x0,0x202945(%rip)        # 604508 <is_checker>
  401bc3:	74 60                	je     401c25 <validate+0x6c>
  401bc5:	39 3d 31 29 20 00    	cmp    %edi,0x202931(%rip)        # 6044fc <vlevel>
  401bcb:	74 14                	je     401be1 <validate+0x28>
  401bcd:	bf 42 30 40 00       	mov    $0x403042,%edi
  401bd2:	e8 79 f0 ff ff       	callq  400c50 <puts@plt>
  401bd7:	b8 00 00 00 00       	mov    $0x0,%eax
  401bdc:	e8 ba fd ff ff       	callq  40199b <check_fail>
  401be1:	8b 35 11 29 20 00    	mov    0x202911(%rip),%esi        # 6044f8 <check_level>
  401be7:	39 fe                	cmp    %edi,%esi
  401be9:	74 1b                	je     401c06 <validate+0x4d>
  401beb:	89 fa                	mov    %edi,%edx
  401bed:	bf 80 31 40 00       	mov    $0x403180,%edi
  401bf2:	b8 00 00 00 00       	mov    $0x0,%eax
  401bf7:	e8 84 f0 ff ff       	callq  400c80 <printf@plt>
  401bfc:	b8 00 00 00 00       	mov    $0x0,%eax
  401c01:	e8 95 fd ff ff       	callq  40199b <check_fail>
  401c06:	0f be 35 1b 35 20 00 	movsbl 0x20351b(%rip),%esi        # 605128 <target_prefix>
  401c0d:	b9 20 45 60 00       	mov    $0x604520,%ecx
  401c12:	89 fa                	mov    %edi,%edx
  401c14:	bf 60 30 40 00       	mov    $0x403060,%edi
  401c19:	b8 00 00 00 00       	mov    $0x0,%eax
  401c1e:	e8 5d f0 ff ff       	callq  400c80 <printf@plt>
  401c23:	eb 44                	jmp    401c69 <validate+0xb0>
  401c25:	39 3d d1 28 20 00    	cmp    %edi,0x2028d1(%rip)        # 6044fc <vlevel>
  401c2b:	74 18                	je     401c45 <validate+0x8c>
  401c2d:	bf 42 30 40 00       	mov    $0x403042,%edi
  401c32:	e8 19 f0 ff ff       	callq  400c50 <puts@plt>
  401c37:	89 de                	mov    %ebx,%esi
  401c39:	bf 00 00 00 00       	mov    $0x0,%edi
  401c3e:	e8 d9 fd ff ff       	callq  401a1c <notify_server>
  401c43:	eb 24                	jmp    401c69 <validate+0xb0>
  401c45:	0f be 15 dc 34 20 00 	movsbl 0x2034dc(%rip),%edx        # 605128 <target_prefix>
  401c4c:	89 fe                	mov    %edi,%esi
  401c4e:	bf a8 31 40 00       	mov    $0x4031a8,%edi
  401c53:	b8 00 00 00 00       	mov    $0x0,%eax
  401c58:	e8 23 f0 ff ff       	callq  400c80 <printf@plt>
  401c5d:	89 de                	mov    %ebx,%esi
  401c5f:	bf 01 00 00 00       	mov    $0x1,%edi
  401c64:	e8 b3 fd ff ff       	callq  401a1c <notify_server>
  401c69:	5b                   	pop    %rbx
  401c6a:	c3                   	retq   

0000000000401c6b <fail>:
  401c6b:	48 83 ec 08          	sub    $0x8,%rsp
  401c6f:	83 3d 92 28 20 00 00 	cmpl   $0x0,0x202892(%rip)        # 604508 <is_checker>
  401c76:	74 0a                	je     401c82 <fail+0x17>
  401c78:	b8 00 00 00 00       	mov    $0x0,%eax
  401c7d:	e8 19 fd ff ff       	callq  40199b <check_fail>
  401c82:	89 fe                	mov    %edi,%esi
  401c84:	bf 00 00 00 00       	mov    $0x0,%edi
  401c89:	e8 8e fd ff ff       	callq  401a1c <notify_server>
  401c8e:	48 83 c4 08          	add    $0x8,%rsp
  401c92:	c3                   	retq   

0000000000401c93 <bushandler>:
  401c93:	48 83 ec 08          	sub    $0x8,%rsp
  401c97:	83 3d 6a 28 20 00 00 	cmpl   $0x0,0x20286a(%rip)        # 604508 <is_checker>
  401c9e:	74 14                	je     401cb4 <bushandler+0x21>
  401ca0:	bf 75 30 40 00       	mov    $0x403075,%edi
  401ca5:	e8 a6 ef ff ff       	callq  400c50 <puts@plt>
  401caa:	b8 00 00 00 00       	mov    $0x0,%eax
  401caf:	e8 e7 fc ff ff       	callq  40199b <check_fail>
  401cb4:	bf e0 31 40 00       	mov    $0x4031e0,%edi
  401cb9:	e8 92 ef ff ff       	callq  400c50 <puts@plt>
  401cbe:	bf 7f 30 40 00       	mov    $0x40307f,%edi
  401cc3:	e8 88 ef ff ff       	callq  400c50 <puts@plt>
  401cc8:	be 00 00 00 00       	mov    $0x0,%esi
  401ccd:	bf 00 00 00 00       	mov    $0x0,%edi
  401cd2:	e8 45 fd ff ff       	callq  401a1c <notify_server>
  401cd7:	bf 01 00 00 00       	mov    $0x1,%edi
  401cdc:	e8 ff f0 ff ff       	callq  400de0 <exit@plt>

0000000000401ce1 <seghandler>:
  401ce1:	48 83 ec 08          	sub    $0x8,%rsp
  401ce5:	83 3d 1c 28 20 00 00 	cmpl   $0x0,0x20281c(%rip)        # 604508 <is_checker>
  401cec:	74 14                	je     401d02 <seghandler+0x21>
  401cee:	bf 95 30 40 00       	mov    $0x403095,%edi
  401cf3:	e8 58 ef ff ff       	callq  400c50 <puts@plt>
  401cf8:	b8 00 00 00 00       	mov    $0x0,%eax
  401cfd:	e8 99 fc ff ff       	callq  40199b <check_fail>
  401d02:	bf 00 32 40 00       	mov    $0x403200,%edi
  401d07:	e8 44 ef ff ff       	callq  400c50 <puts@plt>
  401d0c:	bf 7f 30 40 00       	mov    $0x40307f,%edi
  401d11:	e8 3a ef ff ff       	callq  400c50 <puts@plt>
  401d16:	be 00 00 00 00       	mov    $0x0,%esi
  401d1b:	bf 00 00 00 00       	mov    $0x0,%edi
  401d20:	e8 f7 fc ff ff       	callq  401a1c <notify_server>
  401d25:	bf 01 00 00 00       	mov    $0x1,%edi
  401d2a:	e8 b1 f0 ff ff       	callq  400de0 <exit@plt>

0000000000401d2f <illegalhandler>:
  401d2f:	48 83 ec 08          	sub    $0x8,%rsp
  401d33:	83 3d ce 27 20 00 00 	cmpl   $0x0,0x2027ce(%rip)        # 604508 <is_checker>
  401d3a:	74 14                	je     401d50 <illegalhandler+0x21>
  401d3c:	bf a8 30 40 00       	mov    $0x4030a8,%edi
  401d41:	e8 0a ef ff ff       	callq  400c50 <puts@plt>
  401d46:	b8 00 00 00 00       	mov    $0x0,%eax
  401d4b:	e8 4b fc ff ff       	callq  40199b <check_fail>
  401d50:	bf 28 32 40 00       	mov    $0x403228,%edi
  401d55:	e8 f6 ee ff ff       	callq  400c50 <puts@plt>
  401d5a:	bf 7f 30 40 00       	mov    $0x40307f,%edi
  401d5f:	e8 ec ee ff ff       	callq  400c50 <puts@plt>
  401d64:	be 00 00 00 00       	mov    $0x0,%esi
  401d69:	bf 00 00 00 00       	mov    $0x0,%edi
  401d6e:	e8 a9 fc ff ff       	callq  401a1c <notify_server>
  401d73:	bf 01 00 00 00       	mov    $0x1,%edi
  401d78:	e8 63 f0 ff ff       	callq  400de0 <exit@plt>

0000000000401d7d <sigalrmhandler>:
  401d7d:	48 83 ec 08          	sub    $0x8,%rsp
  401d81:	83 3d 80 27 20 00 00 	cmpl   $0x0,0x202780(%rip)        # 604508 <is_checker>
  401d88:	74 14                	je     401d9e <sigalrmhandler+0x21>
  401d8a:	bf bc 30 40 00       	mov    $0x4030bc,%edi
  401d8f:	e8 bc ee ff ff       	callq  400c50 <puts@plt>
  401d94:	b8 00 00 00 00       	mov    $0x0,%eax
  401d99:	e8 fd fb ff ff       	callq  40199b <check_fail>
  401d9e:	be 05 00 00 00       	mov    $0x5,%esi
  401da3:	bf 58 32 40 00       	mov    $0x403258,%edi
  401da8:	b8 00 00 00 00       	mov    $0x0,%eax
  401dad:	e8 ce ee ff ff       	callq  400c80 <printf@plt>
  401db2:	be 00 00 00 00       	mov    $0x0,%esi
  401db7:	bf 00 00 00 00       	mov    $0x0,%edi
  401dbc:	e8 5b fc ff ff       	callq  401a1c <notify_server>
  401dc1:	bf 01 00 00 00       	mov    $0x1,%edi
  401dc6:	e8 15 f0 ff ff       	callq  400de0 <exit@plt>

0000000000401dcb <launch>:
  401dcb:	55                   	push   %rbp
  401dcc:	48 89 e5             	mov    %rsp,%rbp
  401dcf:	48 89 fa             	mov    %rdi,%rdx
  401dd2:	48 8d 47 1e          	lea    0x1e(%rdi),%rax
  401dd6:	48 83 e0 f0          	and    $0xfffffffffffffff0,%rax
  401dda:	48 29 c4             	sub    %rax,%rsp
  401ddd:	48 8d 7c 24 0f       	lea    0xf(%rsp),%rdi
  401de2:	48 83 e7 f0          	and    $0xfffffffffffffff0,%rdi
  401de6:	be f4 00 00 00       	mov    $0xf4,%esi
  401deb:	e8 a0 ee ff ff       	callq  400c90 <memset@plt>
  401df0:	48 8b 05 c9 26 20 00 	mov    0x2026c9(%rip),%rax        # 6044c0 <stdin@@GLIBC_2.2.5>
  401df7:	48 39 05 f2 26 20 00 	cmp    %rax,0x2026f2(%rip)        # 6044f0 <infile>
  401dfe:	75 0f                	jne    401e0f <launch+0x44>
  401e00:	bf c4 30 40 00       	mov    $0x4030c4,%edi
  401e05:	b8 00 00 00 00       	mov    $0x0,%eax
  401e0a:	e8 71 ee ff ff       	callq  400c80 <printf@plt>
  401e0f:	c7 05 e3 26 20 00 00 	movl   $0x0,0x2026e3(%rip)        # 6044fc <vlevel>
  401e16:	00 00 00 
  401e19:	b8 00 00 00 00       	mov    $0x0,%eax
  401e1e:	e8 e6 fa ff ff       	callq  401909 <test>
  401e23:	83 3d de 26 20 00 00 	cmpl   $0x0,0x2026de(%rip)        # 604508 <is_checker>
  401e2a:	74 14                	je     401e40 <launch+0x75>
  401e2c:	bf d1 30 40 00       	mov    $0x4030d1,%edi
  401e31:	e8 1a ee ff ff       	callq  400c50 <puts@plt>
  401e36:	b8 00 00 00 00       	mov    $0x0,%eax
  401e3b:	e8 5b fb ff ff       	callq  40199b <check_fail>
  401e40:	bf dc 30 40 00       	mov    $0x4030dc,%edi
  401e45:	e8 06 ee ff ff       	callq  400c50 <puts@plt>
  401e4a:	c9                   	leaveq 
  401e4b:	c3                   	retq   

0000000000401e4c <stable_launch>:
  401e4c:	53                   	push   %rbx
  401e4d:	48 89 3d 94 26 20 00 	mov    %rdi,0x202694(%rip)        # 6044e8 <global_offset>
  401e54:	41 b9 00 00 00 00    	mov    $0x0,%r9d
  401e5a:	41 b8 00 00 00 00    	mov    $0x0,%r8d
  401e60:	b9 32 01 00 00       	mov    $0x132,%ecx
  401e65:	ba 07 00 00 00       	mov    $0x7,%edx
  401e6a:	be 00 00 10 00       	mov    $0x100000,%esi
  401e6f:	bf 00 60 58 55       	mov    $0x55586000,%edi
  401e74:	e8 f7 ed ff ff       	callq  400c70 <mmap@plt>
  401e79:	48 89 c3             	mov    %rax,%rbx
  401e7c:	48 3d 00 60 58 55    	cmp    $0x55586000,%rax
  401e82:	74 32                	je     401eb6 <stable_launch+0x6a>
  401e84:	be 00 00 10 00       	mov    $0x100000,%esi
  401e89:	48 89 c7             	mov    %rax,%rdi
  401e8c:	e8 ef ee ff ff       	callq  400d80 <munmap@plt>
  401e91:	ba 00 60 58 55       	mov    $0x55586000,%edx
  401e96:	be 90 32 40 00       	mov    $0x403290,%esi
  401e9b:	48 8b 3d 2e 26 20 00 	mov    0x20262e(%rip),%rdi        # 6044d0 <stderr@@GLIBC_2.2.5>
  401ea2:	b8 00 00 00 00       	mov    $0x0,%eax
  401ea7:	e8 44 ee ff ff       	callq  400cf0 <fprintf@plt>
  401eac:	bf 01 00 00 00       	mov    $0x1,%edi
  401eb1:	e8 2a ef ff ff       	callq  400de0 <exit@plt>
  401eb6:	48 8d 90 f8 ff 0f 00 	lea    0xffff8(%rax),%rdx
  401ebd:	48 89 15 6c 32 20 00 	mov    %rdx,0x20326c(%rip)        # 605130 <stack_top>
  401ec4:	48 89 e0             	mov    %rsp,%rax
  401ec7:	48 89 d4             	mov    %rdx,%rsp
  401eca:	48 89 c2             	mov    %rax,%rdx
  401ecd:	48 89 15 0c 26 20 00 	mov    %rdx,0x20260c(%rip)        # 6044e0 <global_save_stack>
  401ed4:	48 8b 3d 0d 26 20 00 	mov    0x20260d(%rip),%rdi        # 6044e8 <global_offset>
  401edb:	e8 eb fe ff ff       	callq  401dcb <launch>
  401ee0:	48 8b 05 f9 25 20 00 	mov    0x2025f9(%rip),%rax        # 6044e0 <global_save_stack>
  401ee7:	48 89 c4             	mov    %rax,%rsp
  401eea:	be 00 00 10 00       	mov    $0x100000,%esi
  401eef:	48 89 df             	mov    %rbx,%rdi
  401ef2:	e8 89 ee ff ff       	callq  400d80 <munmap@plt>
  401ef7:	5b                   	pop    %rbx
  401ef8:	c3                   	retq   
  401ef9:	0f 1f 80 00 00 00 00 	nopl   0x0(%rax)

0000000000401f00 <rio_readinitb>:
  401f00:	89 37                	mov    %esi,(%rdi)
  401f02:	c7 47 04 00 00 00 00 	movl   $0x0,0x4(%rdi)
  401f09:	48 8d 47 10          	lea    0x10(%rdi),%rax
  401f0d:	48 89 47 08          	mov    %rax,0x8(%rdi)
  401f11:	c3                   	retq   

0000000000401f12 <sigalrm_handler>:
  401f12:	48 83 ec 08          	sub    $0x8,%rsp
  401f16:	ba 00 00 00 00       	mov    $0x0,%edx
  401f1b:	be d0 32 40 00       	mov    $0x4032d0,%esi
  401f20:	48 8b 3d a9 25 20 00 	mov    0x2025a9(%rip),%rdi        # 6044d0 <stderr@@GLIBC_2.2.5>
  401f27:	b8 00 00 00 00       	mov    $0x0,%eax
  401f2c:	e8 bf ed ff ff       	callq  400cf0 <fprintf@plt>
  401f31:	bf 01 00 00 00       	mov    $0x1,%edi
  401f36:	e8 a5 ee ff ff       	callq  400de0 <exit@plt>

0000000000401f3b <urlencode>:
  401f3b:	41 54                	push   %r12
  401f3d:	55                   	push   %rbp
  401f3e:	53                   	push   %rbx
  401f3f:	48 83 ec 10          	sub    $0x10,%rsp
  401f43:	48 89 fb             	mov    %rdi,%rbx
  401f46:	48 89 f5             	mov    %rsi,%rbp
  401f49:	b8 00 00 00 00       	mov    $0x0,%eax
  401f4e:	48 c7 c1 ff ff ff ff 	mov    $0xffffffffffffffff,%rcx
  401f55:	f2 ae                	repnz scas %es:(%rdi),%al
  401f57:	48 f7 d1             	not    %rcx
  401f5a:	8d 41 ff             	lea    -0x1(%rcx),%eax
  401f5d:	e9 93 00 00 00       	jmpq   401ff5 <urlencode+0xba>
  401f62:	0f b6 13             	movzbl (%rbx),%edx
  401f65:	80 fa 2a             	cmp    $0x2a,%dl
  401f68:	0f 94 c1             	sete   %cl
  401f6b:	80 fa 2d             	cmp    $0x2d,%dl
  401f6e:	0f 94 c0             	sete   %al
  401f71:	08 c1                	or     %al,%cl
  401f73:	75 1f                	jne    401f94 <urlencode+0x59>
  401f75:	80 fa 2e             	cmp    $0x2e,%dl
  401f78:	74 1a                	je     401f94 <urlencode+0x59>
  401f7a:	80 fa 5f             	cmp    $0x5f,%dl
  401f7d:	74 15                	je     401f94 <urlencode+0x59>
  401f7f:	8d 42 d0             	lea    -0x30(%rdx),%eax
  401f82:	3c 09                	cmp    $0x9,%al
  401f84:	76 0e                	jbe    401f94 <urlencode+0x59>
  401f86:	8d 42 bf             	lea    -0x41(%rdx),%eax
  401f89:	3c 19                	cmp    $0x19,%al
  401f8b:	76 07                	jbe    401f94 <urlencode+0x59>
  401f8d:	8d 42 9f             	lea    -0x61(%rdx),%eax
  401f90:	3c 19                	cmp    $0x19,%al
  401f92:	77 09                	ja     401f9d <urlencode+0x62>
  401f94:	88 55 00             	mov    %dl,0x0(%rbp)
  401f97:	48 8d 6d 01          	lea    0x1(%rbp),%rbp
  401f9b:	eb 51                	jmp    401fee <urlencode+0xb3>
  401f9d:	80 fa 20             	cmp    $0x20,%dl
  401fa0:	75 0a                	jne    401fac <urlencode+0x71>
  401fa2:	c6 45 00 2b          	movb   $0x2b,0x0(%rbp)
  401fa6:	48 8d 6d 01          	lea    0x1(%rbp),%rbp
  401faa:	eb 42                	jmp    401fee <urlencode+0xb3>
  401fac:	8d 42 e0             	lea    -0x20(%rdx),%eax
  401faf:	3c 5f                	cmp    $0x5f,%al
  401fb1:	0f 96 c1             	setbe  %cl
  401fb4:	80 fa 09             	cmp    $0x9,%dl
  401fb7:	0f 94 c0             	sete   %al
  401fba:	08 c1                	or     %al,%cl
  401fbc:	74 45                	je     402003 <urlencode+0xc8>
  401fbe:	0f b6 d2             	movzbl %dl,%edx
  401fc1:	be 78 33 40 00       	mov    $0x403378,%esi
  401fc6:	48 89 e7             	mov    %rsp,%rdi
  401fc9:	b8 00 00 00 00       	mov    $0x0,%eax
  401fce:	e8 fd ed ff ff       	callq  400dd0 <sprintf@plt>
  401fd3:	0f b6 04 24          	movzbl (%rsp),%eax
  401fd7:	88 45 00             	mov    %al,0x0(%rbp)
  401fda:	0f b6 44 24 01       	movzbl 0x1(%rsp),%eax
  401fdf:	88 45 01             	mov    %al,0x1(%rbp)
  401fe2:	0f b6 44 24 02       	movzbl 0x2(%rsp),%eax
  401fe7:	88 45 02             	mov    %al,0x2(%rbp)
  401fea:	48 8d 6d 03          	lea    0x3(%rbp),%rbp
  401fee:	48 83 c3 01          	add    $0x1,%rbx
  401ff2:	44 89 e0             	mov    %r12d,%eax
  401ff5:	44 8d 60 ff          	lea    -0x1(%rax),%r12d
  401ff9:	85 c0                	test   %eax,%eax
  401ffb:	0f 85 61 ff ff ff    	jne    401f62 <urlencode+0x27>
  402001:	eb 05                	jmp    402008 <urlencode+0xcd>
  402003:	b8 ff ff ff ff       	mov    $0xffffffff,%eax
  402008:	48 83 c4 10          	add    $0x10,%rsp
  40200c:	5b                   	pop    %rbx
  40200d:	5d                   	pop    %rbp
  40200e:	41 5c                	pop    %r12
  402010:	c3                   	retq   

0000000000402011 <rio_writen>:
  402011:	41 55                	push   %r13
  402013:	41 54                	push   %r12
  402015:	55                   	push   %rbp
  402016:	53                   	push   %rbx
  402017:	48 83 ec 08          	sub    $0x8,%rsp
  40201b:	41 89 fc             	mov    %edi,%r12d
  40201e:	48 89 f5             	mov    %rsi,%rbp
  402021:	49 89 d5             	mov    %rdx,%r13
  402024:	48 89 d3             	mov    %rdx,%rbx
  402027:	eb 28                	jmp    402051 <rio_writen+0x40>
  402029:	48 89 da             	mov    %rbx,%rdx
  40202c:	48 89 ee             	mov    %rbp,%rsi
  40202f:	44 89 e7             	mov    %r12d,%edi
  402032:	e8 29 ec ff ff       	callq  400c60 <write@plt>
  402037:	48 85 c0             	test   %rax,%rax
  40203a:	7f 0f                	jg     40204b <rio_writen+0x3a>
  40203c:	e8 cf eb ff ff       	callq  400c10 <__errno_location@plt>
  402041:	83 38 04             	cmpl   $0x4,(%rax)
  402044:	75 15                	jne    40205b <rio_writen+0x4a>
  402046:	b8 00 00 00 00       	mov    $0x0,%eax
  40204b:	48 29 c3             	sub    %rax,%rbx
  40204e:	48 01 c5             	add    %rax,%rbp
  402051:	48 85 db             	test   %rbx,%rbx
  402054:	75 d3                	jne    402029 <rio_writen+0x18>
  402056:	4c 89 e8             	mov    %r13,%rax
  402059:	eb 07                	jmp    402062 <rio_writen+0x51>
  40205b:	48 c7 c0 ff ff ff ff 	mov    $0xffffffffffffffff,%rax
  402062:	48 83 c4 08          	add    $0x8,%rsp
  402066:	5b                   	pop    %rbx
  402067:	5d                   	pop    %rbp
  402068:	41 5c                	pop    %r12
  40206a:	41 5d                	pop    %r13
  40206c:	c3                   	retq   

000000000040206d <rio_read>:
  40206d:	41 56                	push   %r14
  40206f:	41 55                	push   %r13
  402071:	41 54                	push   %r12
  402073:	55                   	push   %rbp
  402074:	53                   	push   %rbx
  402075:	48 89 fb             	mov    %rdi,%rbx
  402078:	49 89 f6             	mov    %rsi,%r14
  40207b:	49 89 d5             	mov    %rdx,%r13
  40207e:	4c 8d 67 10          	lea    0x10(%rdi),%r12
  402082:	eb 2a                	jmp    4020ae <rio_read+0x41>
  402084:	ba 00 20 00 00       	mov    $0x2000,%edx
  402089:	4c 89 e6             	mov    %r12,%rsi
  40208c:	8b 3b                	mov    (%rbx),%edi
  40208e:	e8 2d ec ff ff       	callq  400cc0 <read@plt>
  402093:	89 43 04             	mov    %eax,0x4(%rbx)
  402096:	85 c0                	test   %eax,%eax
  402098:	79 0c                	jns    4020a6 <rio_read+0x39>
  40209a:	e8 71 eb ff ff       	callq  400c10 <__errno_location@plt>
  40209f:	83 38 04             	cmpl   $0x4,(%rax)
  4020a2:	74 0a                	je     4020ae <rio_read+0x41>
  4020a4:	eb 37                	jmp    4020dd <rio_read+0x70>
  4020a6:	85 c0                	test   %eax,%eax
  4020a8:	74 3c                	je     4020e6 <rio_read+0x79>
  4020aa:	4c 89 63 08          	mov    %r12,0x8(%rbx)
  4020ae:	8b 6b 04             	mov    0x4(%rbx),%ebp
  4020b1:	85 ed                	test   %ebp,%ebp
  4020b3:	7e cf                	jle    402084 <rio_read+0x17>
  4020b5:	89 e8                	mov    %ebp,%eax
  4020b7:	4c 39 e8             	cmp    %r13,%rax
  4020ba:	72 03                	jb     4020bf <rio_read+0x52>
  4020bc:	44 89 ed             	mov    %r13d,%ebp
  4020bf:	4c 63 e5             	movslq %ebp,%r12
  4020c2:	48 8b 73 08          	mov    0x8(%rbx),%rsi
  4020c6:	4c 89 e2             	mov    %r12,%rdx
  4020c9:	4c 89 f7             	mov    %r14,%rdi
  4020cc:	e8 4f ec ff ff       	callq  400d20 <memcpy@plt>
  4020d1:	4c 01 63 08          	add    %r12,0x8(%rbx)
  4020d5:	29 6b 04             	sub    %ebp,0x4(%rbx)
  4020d8:	4c 89 e0             	mov    %r12,%rax
  4020db:	eb 0e                	jmp    4020eb <rio_read+0x7e>
  4020dd:	48 c7 c0 ff ff ff ff 	mov    $0xffffffffffffffff,%rax
  4020e4:	eb 05                	jmp    4020eb <rio_read+0x7e>
  4020e6:	b8 00 00 00 00       	mov    $0x0,%eax
  4020eb:	5b                   	pop    %rbx
  4020ec:	5d                   	pop    %rbp
  4020ed:	41 5c                	pop    %r12
  4020ef:	41 5d                	pop    %r13
  4020f1:	41 5e                	pop    %r14
  4020f3:	c3                   	retq   

00000000004020f4 <rio_readlineb>:
  4020f4:	41 55                	push   %r13
  4020f6:	41 54                	push   %r12
  4020f8:	55                   	push   %rbp
  4020f9:	53                   	push   %rbx
  4020fa:	48 83 ec 18          	sub    $0x18,%rsp
  4020fe:	49 89 fd             	mov    %rdi,%r13
  402101:	48 89 f5             	mov    %rsi,%rbp
  402104:	49 89 d4             	mov    %rdx,%r12
  402107:	bb 01 00 00 00       	mov    $0x1,%ebx
  40210c:	eb 3d                	jmp    40214b <rio_readlineb+0x57>
  40210e:	ba 01 00 00 00       	mov    $0x1,%edx
  402113:	48 8d 74 24 0f       	lea    0xf(%rsp),%rsi
  402118:	4c 89 ef             	mov    %r13,%rdi
  40211b:	e8 4d ff ff ff       	callq  40206d <rio_read>
  402120:	83 f8 01             	cmp    $0x1,%eax
  402123:	75 12                	jne    402137 <rio_readlineb+0x43>
  402125:	48 8d 55 01          	lea    0x1(%rbp),%rdx
  402129:	0f b6 44 24 0f       	movzbl 0xf(%rsp),%eax
  40212e:	88 45 00             	mov    %al,0x0(%rbp)
  402131:	3c 0a                	cmp    $0xa,%al
  402133:	75 0f                	jne    402144 <rio_readlineb+0x50>
  402135:	eb 1b                	jmp    402152 <rio_readlineb+0x5e>
  402137:	85 c0                	test   %eax,%eax
  402139:	75 23                	jne    40215e <rio_readlineb+0x6a>
  40213b:	48 83 fb 01          	cmp    $0x1,%rbx
  40213f:	90                   	nop
  402140:	75 13                	jne    402155 <rio_readlineb+0x61>
  402142:	eb 23                	jmp    402167 <rio_readlineb+0x73>
  402144:	48 83 c3 01          	add    $0x1,%rbx
  402148:	48 89 d5             	mov    %rdx,%rbp
  40214b:	4c 39 e3             	cmp    %r12,%rbx
  40214e:	72 be                	jb     40210e <rio_readlineb+0x1a>
  402150:	eb 03                	jmp    402155 <rio_readlineb+0x61>
  402152:	48 89 d5             	mov    %rdx,%rbp
  402155:	c6 45 00 00          	movb   $0x0,0x0(%rbp)
  402159:	48 89 d8             	mov    %rbx,%rax
  40215c:	eb 0e                	jmp    40216c <rio_readlineb+0x78>
  40215e:	48 c7 c0 ff ff ff ff 	mov    $0xffffffffffffffff,%rax
  402165:	eb 05                	jmp    40216c <rio_readlineb+0x78>
  402167:	b8 00 00 00 00       	mov    $0x0,%eax
  40216c:	48 83 c4 18          	add    $0x18,%rsp
  402170:	5b                   	pop    %rbx
  402171:	5d                   	pop    %rbp
  402172:	41 5c                	pop    %r12
  402174:	41 5d                	pop    %r13
  402176:	c3                   	retq   

0000000000402177 <submitr>:
  402177:	41 57                	push   %r15
  402179:	41 56                	push   %r14
  40217b:	41 55                	push   %r13
  40217d:	41 54                	push   %r12
  40217f:	55                   	push   %rbp
  402180:	53                   	push   %rbx
  402181:	48 81 ec 68 c0 00 00 	sub    $0xc068,%rsp
  402188:	49 89 fc             	mov    %rdi,%r12
  40218b:	89 74 24 14          	mov    %esi,0x14(%rsp)
  40218f:	49 89 d7             	mov    %rdx,%r15
  402192:	49 89 ce             	mov    %rcx,%r14
  402195:	4c 89 44 24 18       	mov    %r8,0x18(%rsp)
  40219a:	4d 89 cd             	mov    %r9,%r13
  40219d:	48 8b 9c 24 a0 c0 00 	mov    0xc0a0(%rsp),%rbx
  4021a4:	00 
  4021a5:	c7 84 24 3c 20 00 00 	movl   $0x0,0x203c(%rsp)
  4021ac:	00 00 00 00 
  4021b0:	ba 00 00 00 00       	mov    $0x0,%edx
  4021b5:	be 01 00 00 00       	mov    $0x1,%esi
  4021ba:	bf 02 00 00 00       	mov    $0x2,%edi
  4021bf:	e8 3c ec ff ff       	callq  400e00 <socket@plt>
  4021c4:	89 c5                	mov    %eax,%ebp
  4021c6:	85 c0                	test   %eax,%eax
  4021c8:	79 4e                	jns    402218 <submitr+0xa1>
  4021ca:	48 b8 45 72 72 6f 72 	movabs $0x43203a726f727245,%rax
  4021d1:	3a 20 43 
  4021d4:	48 89 03             	mov    %rax,(%rbx)
  4021d7:	48 b8 6c 69 65 6e 74 	movabs $0x6e7520746e65696c,%rax
  4021de:	20 75 6e 
  4021e1:	48 89 43 08          	mov    %rax,0x8(%rbx)
  4021e5:	48 b8 61 62 6c 65 20 	movabs $0x206f7420656c6261,%rax
  4021ec:	74 6f 20 
  4021ef:	48 89 43 10          	mov    %rax,0x10(%rbx)
  4021f3:	48 b8 63 72 65 61 74 	movabs $0x7320657461657263,%rax
  4021fa:	65 20 73 
  4021fd:	48 89 43 18          	mov    %rax,0x18(%rbx)
  402201:	c7 43 20 6f 63 6b 65 	movl   $0x656b636f,0x20(%rbx)
  402208:	66 c7 43 24 74 00    	movw   $0x74,0x24(%rbx)
  40220e:	b8 ff ff ff ff       	mov    $0xffffffff,%eax
  402213:	e9 80 06 00 00       	jmpq   402898 <submitr+0x721>
  402218:	48 c7 84 24 50 c0 00 	movq   $0x0,0xc050(%rsp)
  40221f:	00 00 00 00 00 
  402224:	48 c7 84 24 58 c0 00 	movq   $0x0,0xc058(%rsp)
  40222b:	00 00 00 00 00 
  402230:	66 c7 84 24 50 c0 00 	movw   $0x2,0xc050(%rsp)
  402237:	00 02 00 
  40223a:	0f b7 44 24 14       	movzwl 0x14(%rsp),%eax
  40223f:	66 c1 c8 08          	ror    $0x8,%ax
  402243:	66 89 84 24 52 c0 00 	mov    %ax,0xc052(%rsp)
  40224a:	00 
  40224b:	48 8d 94 24 54 c0 00 	lea    0xc054(%rsp),%rdx
  402252:	00 
  402253:	4c 89 e6             	mov    %r12,%rsi
  402256:	bf 02 00 00 00       	mov    $0x2,%edi
  40225b:	e8 d0 ea ff ff       	callq  400d30 <inet_pton@plt>
  402260:	83 f8 01             	cmp    $0x1,%eax
  402263:	74 57                	je     4022bc <submitr+0x145>
  402265:	4c 89 e6             	mov    %r12,%rsi
  402268:	48 89 df             	mov    %rbx,%rdi
  40226b:	e8 d0 e9 ff ff       	callq  400c40 <strcpy@plt>
  402270:	48 b8 45 72 72 6f 72 	movabs $0x49203a726f727245,%rax
  402277:	3a 20 49 
  40227a:	48 89 03             	mov    %rax,(%rbx)
  40227d:	48 b8 6e 76 61 6c 69 	movabs $0x732064696c61766e,%rax
  402284:	64 20 73 
  402287:	48 89 43 08          	mov    %rax,0x8(%rbx)
  40228b:	48 b8 65 72 76 65 72 	movabs $0x7069207265767265,%rax
  402292:	20 69 70 
  402295:	48 89 43 10          	mov    %rax,0x10(%rbx)
  402299:	48 b8 20 61 64 64 72 	movabs $0x7373657264646120,%rax
  4022a0:	65 73 73 
  4022a3:	48 89 43 18          	mov    %rax,0x18(%rbx)
  4022a7:	c6 43 20 00          	movb   $0x0,0x20(%rbx)
  4022ab:	89 ef                	mov    %ebp,%edi
  4022ad:	e8 fe e9 ff ff       	callq  400cb0 <close@plt>
  4022b2:	b8 ff ff ff ff       	mov    $0xffffffff,%eax
  4022b7:	e9 dc 05 00 00       	jmpq   402898 <submitr+0x721>
  4022bc:	ba 10 00 00 00       	mov    $0x10,%edx
  4022c1:	48 8d b4 24 50 c0 00 	lea    0xc050(%rsp),%rsi
  4022c8:	00 
  4022c9:	89 ef                	mov    %ebp,%edi
  4022cb:	e8 20 eb ff ff       	callq  400df0 <connect@plt>
  4022d0:	85 c0                	test   %eax,%eax
  4022d2:	79 59                	jns    40232d <submitr+0x1b6>
  4022d4:	48 b8 45 72 72 6f 72 	movabs $0x55203a726f727245,%rax
  4022db:	3a 20 55 
  4022de:	48 89 03             	mov    %rax,(%rbx)
  4022e1:	48 b8 6e 61 62 6c 65 	movabs $0x6f7420656c62616e,%rax
  4022e8:	20 74 6f 
  4022eb:	48 89 43 08          	mov    %rax,0x8(%rbx)
  4022ef:	48 b8 20 63 6f 6e 6e 	movabs $0x7463656e6e6f6320,%rax
  4022f6:	65 63 74 
  4022f9:	48 89 43 10          	mov    %rax,0x10(%rbx)
  4022fd:	48 b8 20 74 6f 20 74 	movabs $0x20656874206f7420,%rax
  402304:	68 65 20 
  402307:	48 89 43 18          	mov    %rax,0x18(%rbx)
  40230b:	c7 43 20 73 65 72 76 	movl   $0x76726573,0x20(%rbx)
  402312:	66 c7 43 24 65 72    	movw   $0x7265,0x24(%rbx)
  402318:	c6 43 26 00          	movb   $0x0,0x26(%rbx)
  40231c:	89 ef                	mov    %ebp,%edi
  40231e:	e8 8d e9 ff ff       	callq  400cb0 <close@plt>
  402323:	b8 ff ff ff ff       	mov    $0xffffffff,%eax
  402328:	e9 6b 05 00 00       	jmpq   402898 <submitr+0x721>
  40232d:	48 c7 c2 ff ff ff ff 	mov    $0xffffffffffffffff,%rdx
  402334:	4c 89 ef             	mov    %r13,%rdi
  402337:	b8 00 00 00 00       	mov    $0x0,%eax
  40233c:	48 89 d1             	mov    %rdx,%rcx
  40233f:	f2 ae                	repnz scas %es:(%rdi),%al
  402341:	48 f7 d1             	not    %rcx
  402344:	48 89 ce             	mov    %rcx,%rsi
  402347:	4c 89 ff             	mov    %r15,%rdi
  40234a:	48 89 d1             	mov    %rdx,%rcx
  40234d:	f2 ae                	repnz scas %es:(%rdi),%al
  40234f:	48 f7 d1             	not    %rcx
  402352:	49 89 c8             	mov    %rcx,%r8
  402355:	4c 89 f7             	mov    %r14,%rdi
  402358:	48 89 d1             	mov    %rdx,%rcx
  40235b:	f2 ae                	repnz scas %es:(%rdi),%al
  40235d:	49 29 c8             	sub    %rcx,%r8
  402360:	48 8b 7c 24 18       	mov    0x18(%rsp),%rdi
  402365:	48 89 d1             	mov    %rdx,%rcx
  402368:	f2 ae                	repnz scas %es:(%rdi),%al
  40236a:	49 29 c8             	sub    %rcx,%r8
  40236d:	48 8d 44 76 fd       	lea    -0x3(%rsi,%rsi,2),%rax
  402372:	49 8d 44 00 7b       	lea    0x7b(%r8,%rax,1),%rax
  402377:	48 3d 00 20 00 00    	cmp    $0x2000,%rax
  40237d:	76 72                	jbe    4023f1 <submitr+0x27a>
  40237f:	48 b8 45 72 72 6f 72 	movabs $0x52203a726f727245,%rax
  402386:	3a 20 52 
  402389:	48 89 03             	mov    %rax,(%rbx)
  40238c:	48 b8 65 73 75 6c 74 	movabs $0x747320746c757365,%rax
  402393:	20 73 74 
  402396:	48 89 43 08          	mov    %rax,0x8(%rbx)
  40239a:	48 b8 72 69 6e 67 20 	movabs $0x6f6f7420676e6972,%rax
  4023a1:	74 6f 6f 
  4023a4:	48 89 43 10          	mov    %rax,0x10(%rbx)
  4023a8:	48 b8 20 6c 61 72 67 	movabs $0x202e656772616c20,%rax
  4023af:	65 2e 20 
  4023b2:	48 89 43 18          	mov    %rax,0x18(%rbx)
  4023b6:	48 b8 49 6e 63 72 65 	movabs $0x6573616572636e49,%rax
  4023bd:	61 73 65 
  4023c0:	48 89 43 20          	mov    %rax,0x20(%rbx)
  4023c4:	48 b8 20 53 55 42 4d 	movabs $0x5254494d42555320,%rax
  4023cb:	49 54 52 
  4023ce:	48 89 43 28          	mov    %rax,0x28(%rbx)
  4023d2:	48 b8 5f 4d 41 58 42 	movabs $0x46554258414d5f,%rax
  4023d9:	55 46 00 
  4023dc:	48 89 43 30          	mov    %rax,0x30(%rbx)
  4023e0:	89 ef                	mov    %ebp,%edi
  4023e2:	e8 c9 e8 ff ff       	callq  400cb0 <close@plt>
  4023e7:	b8 ff ff ff ff       	mov    $0xffffffff,%eax
  4023ec:	e9 a7 04 00 00       	jmpq   402898 <submitr+0x721>
  4023f1:	48 8d b4 24 40 40 00 	lea    0x4040(%rsp),%rsi
  4023f8:	00 
  4023f9:	b9 00 04 00 00       	mov    $0x400,%ecx
  4023fe:	b8 00 00 00 00       	mov    $0x0,%eax
  402403:	48 89 f7             	mov    %rsi,%rdi
  402406:	f3 48 ab             	rep stos %rax,%es:(%rdi)
  402409:	4c 89 ef             	mov    %r13,%rdi
  40240c:	e8 2a fb ff ff       	callq  401f3b <urlencode>
  402411:	85 c0                	test   %eax,%eax
  402413:	0f 89 8a 00 00 00    	jns    4024a3 <submitr+0x32c>
  402419:	48 b8 45 72 72 6f 72 	movabs $0x52203a726f727245,%rax
  402420:	3a 20 52 
  402423:	48 89 03             	mov    %rax,(%rbx)
  402426:	48 b8 65 73 75 6c 74 	movabs $0x747320746c757365,%rax
  40242d:	20 73 74 
  402430:	48 89 43 08          	mov    %rax,0x8(%rbx)
  402434:	48 b8 72 69 6e 67 20 	movabs $0x6e6f6320676e6972,%rax
  40243b:	63 6f 6e 
  40243e:	48 89 43 10          	mov    %rax,0x10(%rbx)
  402442:	48 b8 74 61 69 6e 73 	movabs $0x6e6120736e696174,%rax
  402449:	20 61 6e 
  40244c:	48 89 43 18          	mov    %rax,0x18(%rbx)
  402450:	48 b8 20 69 6c 6c 65 	movabs $0x6c6167656c6c6920,%rax
  402457:	67 61 6c 
  40245a:	48 89 43 20          	mov    %rax,0x20(%rbx)
  40245e:	48 b8 20 6f 72 20 75 	movabs $0x72706e7520726f20,%rax
  402465:	6e 70 72 
  402468:	48 89 43 28          	mov    %rax,0x28(%rbx)
  40246c:	48 b8 69 6e 74 61 62 	movabs $0x20656c6261746e69,%rax
  402473:	6c 65 20 
  402476:	48 89 43 30          	mov    %rax,0x30(%rbx)
  40247a:	48 b8 63 68 61 72 61 	movabs $0x6574636172616863,%rax
  402481:	63 74 65 
  402484:	48 89 43 38          	mov    %rax,0x38(%rbx)
  402488:	66 c7 43 40 72 2e    	movw   $0x2e72,0x40(%rbx)
  40248e:	c6 43 42 00          	movb   $0x0,0x42(%rbx)
  402492:	89 ef                	mov    %ebp,%edi
  402494:	e8 17 e8 ff ff       	callq  400cb0 <close@plt>
  402499:	b8 ff ff ff ff       	mov    $0xffffffff,%eax
  40249e:	e9 f5 03 00 00       	jmpq   402898 <submitr+0x721>
  4024a3:	bf 7f 33 40 00       	mov    $0x40337f,%edi
  4024a8:	e8 43 e7 ff ff       	callq  400bf0 <getenv@plt>
  4024ad:	48 ba 6e 6f 63 67 75 	movabs $0x7265737567636f6e,%rdx
  4024b4:	73 65 72 
  4024b7:	48 89 54 24 20       	mov    %rdx,0x20(%rsp)
  4024bc:	66 c7 44 24 28 69 64 	movw   $0x6469,0x28(%rsp)
  4024c3:	c6 44 24 2a 00       	movb   $0x0,0x2a(%rsp)
  4024c8:	48 85 c0             	test   %rax,%rax
  4024cb:	75 05                	jne    4024d2 <submitr+0x35b>
  4024cd:	48 8d 44 24 20       	lea    0x20(%rsp),%rax
  4024d2:	4c 89 24 24          	mov    %r12,(%rsp)
  4024d6:	4c 8d 8c 24 40 40 00 	lea    0x4040(%rsp),%r9
  4024dd:	00 
  4024de:	4d 89 f8             	mov    %r15,%r8
  4024e1:	48 89 c1             	mov    %rax,%rcx
  4024e4:	4c 89 f2             	mov    %r14,%rdx
  4024e7:	be f8 32 40 00       	mov    $0x4032f8,%esi
  4024ec:	48 8d bc 24 40 60 00 	lea    0x6040(%rsp),%rdi
  4024f3:	00 
  4024f4:	b8 00 00 00 00       	mov    $0x0,%eax
  4024f9:	e8 d2 e8 ff ff       	callq  400dd0 <sprintf@plt>
  4024fe:	48 8d bc 24 40 60 00 	lea    0x6040(%rsp),%rdi
  402505:	00 
  402506:	b8 00 00 00 00       	mov    $0x0,%eax
  40250b:	48 c7 c1 ff ff ff ff 	mov    $0xffffffffffffffff,%rcx
  402512:	f2 ae                	repnz scas %es:(%rdi),%al
  402514:	48 f7 d1             	not    %rcx
  402517:	48 8d 51 ff          	lea    -0x1(%rcx),%rdx
  40251b:	48 8d b4 24 40 60 00 	lea    0x6040(%rsp),%rsi
  402522:	00 
  402523:	89 ef                	mov    %ebp,%edi
  402525:	e8 e7 fa ff ff       	callq  402011 <rio_writen>
  40252a:	48 85 c0             	test   %rax,%rax
  40252d:	79 6e                	jns    40259d <submitr+0x426>
  40252f:	48 b8 45 72 72 6f 72 	movabs $0x43203a726f727245,%rax
  402536:	3a 20 43 
  402539:	48 89 03             	mov    %rax,(%rbx)
  40253c:	48 b8 6c 69 65 6e 74 	movabs $0x6e7520746e65696c,%rax
  402543:	20 75 6e 
  402546:	48 89 43 08          	mov    %rax,0x8(%rbx)
  40254a:	48 b8 61 62 6c 65 20 	movabs $0x206f7420656c6261,%rax
  402551:	74 6f 20 
  402554:	48 89 43 10          	mov    %rax,0x10(%rbx)
  402558:	48 b8 77 72 69 74 65 	movabs $0x6f74206574697277,%rax
  40255f:	20 74 6f 
  402562:	48 89 43 18          	mov    %rax,0x18(%rbx)
  402566:	48 b8 20 74 68 65 20 	movabs $0x7365722065687420,%rax
  40256d:	72 65 73 
  402570:	48 89 43 20          	mov    %rax,0x20(%rbx)
  402574:	48 b8 75 6c 74 20 73 	movabs $0x7672657320746c75,%rax
  40257b:	65 72 76 
  40257e:	48 89 43 28          	mov    %rax,0x28(%rbx)
  402582:	66 c7 43 30 65 72    	movw   $0x7265,0x30(%rbx)
  402588:	c6 43 32 00          	movb   $0x0,0x32(%rbx)
  40258c:	89 ef                	mov    %ebp,%edi
  40258e:	e8 1d e7 ff ff       	callq  400cb0 <close@plt>
  402593:	b8 ff ff ff ff       	mov    $0xffffffff,%eax
  402598:	e9 fb 02 00 00       	jmpq   402898 <submitr+0x721>
  40259d:	89 ee                	mov    %ebp,%esi
  40259f:	48 8d bc 24 40 a0 00 	lea    0xa040(%rsp),%rdi
  4025a6:	00 
  4025a7:	e8 54 f9 ff ff       	callq  401f00 <rio_readinitb>
  4025ac:	ba 00 20 00 00       	mov    $0x2000,%edx
  4025b1:	48 8d b4 24 40 60 00 	lea    0x6040(%rsp),%rsi
  4025b8:	00 
  4025b9:	48 8d bc 24 40 a0 00 	lea    0xa040(%rsp),%rdi
  4025c0:	00 
  4025c1:	e8 2e fb ff ff       	callq  4020f4 <rio_readlineb>
  4025c6:	48 85 c0             	test   %rax,%rax
  4025c9:	7f 7d                	jg     402648 <submitr+0x4d1>
  4025cb:	48 b8 45 72 72 6f 72 	movabs $0x43203a726f727245,%rax
  4025d2:	3a 20 43 
  4025d5:	48 89 03             	mov    %rax,(%rbx)
  4025d8:	48 b8 6c 69 65 6e 74 	movabs $0x6e7520746e65696c,%rax
  4025df:	20 75 6e 
  4025e2:	48 89 43 08          	mov    %rax,0x8(%rbx)
  4025e6:	48 b8 61 62 6c 65 20 	movabs $0x206f7420656c6261,%rax
  4025ed:	74 6f 20 
  4025f0:	48 89 43 10          	mov    %rax,0x10(%rbx)
  4025f4:	48 b8 72 65 61 64 20 	movabs $0x7269662064616572,%rax
  4025fb:	66 69 72 
  4025fe:	48 89 43 18          	mov    %rax,0x18(%rbx)
  402602:	48 b8 73 74 20 68 65 	movabs $0x6564616568207473,%rax
  402609:	61 64 65 
  40260c:	48 89 43 20          	mov    %rax,0x20(%rbx)
  402610:	48 b8 72 20 66 72 6f 	movabs $0x72206d6f72662072,%rax
  402617:	6d 20 72 
  40261a:	48 89 43 28          	mov    %rax,0x28(%rbx)
  40261e:	48 b8 65 73 75 6c 74 	movabs $0x657320746c757365,%rax
  402625:	20 73 65 
  402628:	48 89 43 30          	mov    %rax,0x30(%rbx)
  40262c:	c7 43 38 72 76 65 72 	movl   $0x72657672,0x38(%rbx)
  402633:	c6 43 3c 00          	movb   $0x0,0x3c(%rbx)
  402637:	89 ef                	mov    %ebp,%edi
  402639:	e8 72 e6 ff ff       	callq  400cb0 <close@plt>
  40263e:	b8 ff ff ff ff       	mov    $0xffffffff,%eax
  402643:	e9 50 02 00 00       	jmpq   402898 <submitr+0x721>
  402648:	4c 8d 44 24 30       	lea    0x30(%rsp),%r8
  40264d:	48 8d 8c 24 3c 20 00 	lea    0x203c(%rsp),%rcx
  402654:	00 
  402655:	48 8d 94 24 40 20 00 	lea    0x2040(%rsp),%rdx
  40265c:	00 
  40265d:	be 88 33 40 00       	mov    $0x403388,%esi
  402662:	48 8d bc 24 40 60 00 	lea    0x6040(%rsp),%rdi
  402669:	00 
  40266a:	b8 00 00 00 00       	mov    $0x0,%eax
  40266f:	e8 fc e6 ff ff       	callq  400d70 <__isoc99_sscanf@plt>
  402674:	e9 98 00 00 00       	jmpq   402711 <submitr+0x59a>
  402679:	ba 00 20 00 00       	mov    $0x2000,%edx
  40267e:	48 8d b4 24 40 60 00 	lea    0x6040(%rsp),%rsi
  402685:	00 
  402686:	48 8d bc 24 40 a0 00 	lea    0xa040(%rsp),%rdi
  40268d:	00 
  40268e:	e8 61 fa ff ff       	callq  4020f4 <rio_readlineb>
  402693:	48 85 c0             	test   %rax,%rax
  402696:	7f 79                	jg     402711 <submitr+0x59a>
  402698:	48 b8 45 72 72 6f 72 	movabs $0x43203a726f727245,%rax
  40269f:	3a 20 43 
  4026a2:	48 89 03             	mov    %rax,(%rbx)
  4026a5:	48 b8 6c 69 65 6e 74 	movabs $0x6e7520746e65696c,%rax
  4026ac:	20 75 6e 
  4026af:	48 89 43 08          	mov    %rax,0x8(%rbx)
  4026b3:	48 b8 61 62 6c 65 20 	movabs $0x206f7420656c6261,%rax
  4026ba:	74 6f 20 
  4026bd:	48 89 43 10          	mov    %rax,0x10(%rbx)
  4026c1:	48 b8 72 65 61 64 20 	movabs $0x6165682064616572,%rax
  4026c8:	68 65 61 
  4026cb:	48 89 43 18          	mov    %rax,0x18(%rbx)
  4026cf:	48 b8 64 65 72 73 20 	movabs $0x6f72662073726564,%rax
  4026d6:	66 72 6f 
  4026d9:	48 89 43 20          	mov    %rax,0x20(%rbx)
  4026dd:	48 b8 6d 20 74 68 65 	movabs $0x657220656874206d,%rax
  4026e4:	20 72 65 
  4026e7:	48 89 43 28          	mov    %rax,0x28(%rbx)
  4026eb:	48 b8 73 75 6c 74 20 	movabs $0x72657320746c7573,%rax
  4026f2:	73 65 72 
  4026f5:	48 89 43 30          	mov    %rax,0x30(%rbx)
  4026f9:	c7 43 38 76 65 72 00 	movl   $0x726576,0x38(%rbx)
  402700:	89 ef                	mov    %ebp,%edi
  402702:	e8 a9 e5 ff ff       	callq  400cb0 <close@plt>
  402707:	b8 ff ff ff ff       	mov    $0xffffffff,%eax
  40270c:	e9 87 01 00 00       	jmpq   402898 <submitr+0x721>
  402711:	0f b6 84 24 40 60 00 	movzbl 0x6040(%rsp),%eax
  402718:	00 
  402719:	83 e8 0d             	sub    $0xd,%eax
  40271c:	75 15                	jne    402733 <submitr+0x5bc>
  40271e:	0f b6 84 24 41 60 00 	movzbl 0x6041(%rsp),%eax
  402725:	00 
  402726:	83 e8 0a             	sub    $0xa,%eax
  402729:	75 08                	jne    402733 <submitr+0x5bc>
  40272b:	0f b6 84 24 42 60 00 	movzbl 0x6042(%rsp),%eax
  402732:	00 
  402733:	85 c0                	test   %eax,%eax
  402735:	0f 85 3e ff ff ff    	jne    402679 <submitr+0x502>
  40273b:	ba 00 20 00 00       	mov    $0x2000,%edx
  402740:	48 8d b4 24 40 60 00 	lea    0x6040(%rsp),%rsi
  402747:	00 
  402748:	48 8d bc 24 40 a0 00 	lea    0xa040(%rsp),%rdi
  40274f:	00 
  402750:	e8 9f f9 ff ff       	callq  4020f4 <rio_readlineb>
  402755:	48 85 c0             	test   %rax,%rax
  402758:	0f 8f 83 00 00 00    	jg     4027e1 <submitr+0x66a>
  40275e:	48 b8 45 72 72 6f 72 	movabs $0x43203a726f727245,%rax
  402765:	3a 20 43 
  402768:	48 89 03             	mov    %rax,(%rbx)
  40276b:	48 b8 6c 69 65 6e 74 	movabs $0x6e7520746e65696c,%rax
  402772:	20 75 6e 
  402775:	48 89 43 08          	mov    %rax,0x8(%rbx)
  402779:	48 b8 61 62 6c 65 20 	movabs $0x206f7420656c6261,%rax
  402780:	74 6f 20 
  402783:	48 89 43 10          	mov    %rax,0x10(%rbx)
  402787:	48 b8 72 65 61 64 20 	movabs $0x6174732064616572,%rax
  40278e:	73 74 61 
  402791:	48 89 43 18          	mov    %rax,0x18(%rbx)
  402795:	48 b8 74 75 73 20 6d 	movabs $0x7373656d20737574,%rax
  40279c:	65 73 73 
  40279f:	48 89 43 20          	mov    %rax,0x20(%rbx)
  4027a3:	48 b8 61 67 65 20 66 	movabs $0x6d6f726620656761,%rax
  4027aa:	72 6f 6d 
  4027ad:	48 89 43 28          	mov    %rax,0x28(%rbx)
  4027b1:	48 b8 20 72 65 73 75 	movabs $0x20746c7573657220,%rax
  4027b8:	6c 74 20 
  4027bb:	48 89 43 30          	mov    %rax,0x30(%rbx)
  4027bf:	c7 43 38 73 65 72 76 	movl   $0x76726573,0x38(%rbx)
  4027c6:	66 c7 43 3c 65 72    	movw   $0x7265,0x3c(%rbx)
  4027cc:	c6 43 3e 00          	movb   $0x0,0x3e(%rbx)
  4027d0:	89 ef                	mov    %ebp,%edi
  4027d2:	e8 d9 e4 ff ff       	callq  400cb0 <close@plt>
  4027d7:	b8 ff ff ff ff       	mov    $0xffffffff,%eax
  4027dc:	e9 b7 00 00 00       	jmpq   402898 <submitr+0x721>
  4027e1:	8b 94 24 3c 20 00 00 	mov    0x203c(%rsp),%edx
  4027e8:	81 fa c8 00 00 00    	cmp    $0xc8,%edx
  4027ee:	74 28                	je     402818 <submitr+0x6a1>
  4027f0:	48 8d 4c 24 30       	lea    0x30(%rsp),%rcx
  4027f5:	be 48 33 40 00       	mov    $0x403348,%esi
  4027fa:	48 89 df             	mov    %rbx,%rdi
  4027fd:	b8 00 00 00 00       	mov    $0x0,%eax
  402802:	e8 c9 e5 ff ff       	callq  400dd0 <sprintf@plt>
  402807:	89 ef                	mov    %ebp,%edi
  402809:	e8 a2 e4 ff ff       	callq  400cb0 <close@plt>
  40280e:	b8 ff ff ff ff       	mov    $0xffffffff,%eax
  402813:	e9 80 00 00 00       	jmpq   402898 <submitr+0x721>
  402818:	48 8d b4 24 40 60 00 	lea    0x6040(%rsp),%rsi
  40281f:	00 
  402820:	48 89 df             	mov    %rbx,%rdi
  402823:	e8 18 e4 ff ff       	callq  400c40 <strcpy@plt>
  402828:	89 ef                	mov    %ebp,%edi
  40282a:	e8 81 e4 ff ff       	callq  400cb0 <close@plt>
  40282f:	0f b6 03             	movzbl (%rbx),%eax
  402832:	83 e8 4f             	sub    $0x4f,%eax
  402835:	75 18                	jne    40284f <submitr+0x6d8>
  402837:	0f b6 53 01          	movzbl 0x1(%rbx),%edx
  40283b:	83 ea 4b             	sub    $0x4b,%edx
  40283e:	75 11                	jne    402851 <submitr+0x6da>
  402840:	0f b6 53 02          	movzbl 0x2(%rbx),%edx
  402844:	83 ea 0a             	sub    $0xa,%edx
  402847:	75 08                	jne    402851 <submitr+0x6da>
  402849:	0f b6 53 03          	movzbl 0x3(%rbx),%edx
  40284d:	eb 02                	jmp    402851 <submitr+0x6da>
  40284f:	89 c2                	mov    %eax,%edx
  402851:	85 d2                	test   %edx,%edx
  402853:	74 30                	je     402885 <submitr+0x70e>
  402855:	bf 99 33 40 00       	mov    $0x403399,%edi
  40285a:	b9 05 00 00 00       	mov    $0x5,%ecx
  40285f:	48 89 de             	mov    %rbx,%rsi
  402862:	f3 a6                	repz cmpsb %es:(%rdi),%ds:(%rsi)
  402864:	0f 97 c1             	seta   %cl
  402867:	0f 92 c2             	setb   %dl
  40286a:	38 d1                	cmp    %dl,%cl
  40286c:	74 1e                	je     40288c <submitr+0x715>
  40286e:	85 c0                	test   %eax,%eax
  402870:	75 0d                	jne    40287f <submitr+0x708>
  402872:	0f b6 43 01          	movzbl 0x1(%rbx),%eax
  402876:	83 e8 4b             	sub    $0x4b,%eax
  402879:	75 04                	jne    40287f <submitr+0x708>
  40287b:	0f b6 43 02          	movzbl 0x2(%rbx),%eax
  40287f:	85 c0                	test   %eax,%eax
  402881:	75 10                	jne    402893 <submitr+0x71c>
  402883:	eb 13                	jmp    402898 <submitr+0x721>
  402885:	b8 00 00 00 00       	mov    $0x0,%eax
  40288a:	eb 0c                	jmp    402898 <submitr+0x721>
  40288c:	b8 00 00 00 00       	mov    $0x0,%eax
  402891:	eb 05                	jmp    402898 <submitr+0x721>
  402893:	b8 ff ff ff ff       	mov    $0xffffffff,%eax
  402898:	48 81 c4 68 c0 00 00 	add    $0xc068,%rsp
  40289f:	5b                   	pop    %rbx
  4028a0:	5d                   	pop    %rbp
  4028a1:	41 5c                	pop    %r12
  4028a3:	41 5d                	pop    %r13
  4028a5:	41 5e                	pop    %r14
  4028a7:	41 5f                	pop    %r15
  4028a9:	c3                   	retq   

00000000004028aa <init_timeout>:
  4028aa:	53                   	push   %rbx
  4028ab:	89 fb                	mov    %edi,%ebx
  4028ad:	85 ff                	test   %edi,%edi
  4028af:	74 1f                	je     4028d0 <init_timeout+0x26>
  4028b1:	85 ff                	test   %edi,%edi
  4028b3:	79 05                	jns    4028ba <init_timeout+0x10>
  4028b5:	bb 00 00 00 00       	mov    $0x0,%ebx
  4028ba:	be 12 1f 40 00       	mov    $0x401f12,%esi
  4028bf:	bf 0e 00 00 00       	mov    $0xe,%edi
  4028c4:	e8 17 e4 ff ff       	callq  400ce0 <signal@plt>
  4028c9:	89 df                	mov    %ebx,%edi
  4028cb:	e8 d0 e3 ff ff       	callq  400ca0 <alarm@plt>
  4028d0:	5b                   	pop    %rbx
  4028d1:	c3                   	retq   

00000000004028d2 <init_driver>:
  4028d2:	55                   	push   %rbp
  4028d3:	53                   	push   %rbx
  4028d4:	48 83 ec 18          	sub    $0x18,%rsp
  4028d8:	48 89 fd             	mov    %rdi,%rbp
  4028db:	be 01 00 00 00       	mov    $0x1,%esi
  4028e0:	bf 0d 00 00 00       	mov    $0xd,%edi
  4028e5:	e8 f6 e3 ff ff       	callq  400ce0 <signal@plt>
  4028ea:	be 01 00 00 00       	mov    $0x1,%esi
  4028ef:	bf 1d 00 00 00       	mov    $0x1d,%edi
  4028f4:	e8 e7 e3 ff ff       	callq  400ce0 <signal@plt>
  4028f9:	be 01 00 00 00       	mov    $0x1,%esi
  4028fe:	bf 1d 00 00 00       	mov    $0x1d,%edi
  402903:	e8 d8 e3 ff ff       	callq  400ce0 <signal@plt>
  402908:	ba 00 00 00 00       	mov    $0x0,%edx
  40290d:	be 01 00 00 00       	mov    $0x1,%esi
  402912:	bf 02 00 00 00       	mov    $0x2,%edi
  402917:	e8 e4 e4 ff ff       	callq  400e00 <socket@plt>
  40291c:	89 c3                	mov    %eax,%ebx
  40291e:	85 c0                	test   %eax,%eax
  402920:	79 4f                	jns    402971 <init_driver+0x9f>
  402922:	48 b8 45 72 72 6f 72 	movabs $0x43203a726f727245,%rax
  402929:	3a 20 43 
  40292c:	48 89 45 00          	mov    %rax,0x0(%rbp)
  402930:	48 b8 6c 69 65 6e 74 	movabs $0x6e7520746e65696c,%rax
  402937:	20 75 6e 
  40293a:	48 89 45 08          	mov    %rax,0x8(%rbp)
  40293e:	48 b8 61 62 6c 65 20 	movabs $0x206f7420656c6261,%rax
  402945:	74 6f 20 
  402948:	48 89 45 10          	mov    %rax,0x10(%rbp)
  40294c:	48 b8 63 72 65 61 74 	movabs $0x7320657461657263,%rax
  402953:	65 20 73 
  402956:	48 89 45 18          	mov    %rax,0x18(%rbp)
  40295a:	c7 45 20 6f 63 6b 65 	movl   $0x656b636f,0x20(%rbp)
  402961:	66 c7 45 24 74 00    	movw   $0x74,0x24(%rbp)
  402967:	b8 ff ff ff ff       	mov    $0xffffffff,%eax
  40296c:	e9 fa 00 00 00       	jmpq   402a6b <init_driver+0x199>
  402971:	48 c7 04 24 00 00 00 	movq   $0x0,(%rsp)
  402978:	00 
  402979:	48 c7 44 24 08 00 00 	movq   $0x0,0x8(%rsp)
  402980:	00 00 
  402982:	66 c7 04 24 02 00    	movw   $0x2,(%rsp)
  402988:	66 c7 44 24 02 3c 9a 	movw   $0x9a3c,0x2(%rsp)
  40298f:	48 8d 54 24 04       	lea    0x4(%rsp),%rdx
  402994:	be 9e 33 40 00       	mov    $0x40339e,%esi
  402999:	bf 02 00 00 00       	mov    $0x2,%edi
  40299e:	e8 8d e3 ff ff       	callq  400d30 <inet_pton@plt>
  4029a3:	83 f8 01             	cmp    $0x1,%eax
  4029a6:	74 4a                	je     4029f2 <init_driver+0x120>
  4029a8:	48 b8 45 72 72 6f 72 	movabs $0x49203a726f727245,%rax
  4029af:	3a 20 49 
  4029b2:	48 89 45 00          	mov    %rax,0x0(%rbp)
  4029b6:	48 b8 6e 76 61 6c 69 	movabs $0x732064696c61766e,%rax
  4029bd:	64 20 73 
  4029c0:	48 89 45 08          	mov    %rax,0x8(%rbp)
  4029c4:	48 b8 65 72 76 65 72 	movabs $0x7069207265767265,%rax
  4029cb:	20 69 70 
  4029ce:	48 89 45 10          	mov    %rax,0x10(%rbp)
  4029d2:	48 b8 20 61 64 64 72 	movabs $0x7373657264646120,%rax
  4029d9:	65 73 73 
  4029dc:	48 89 45 18          	mov    %rax,0x18(%rbp)
  4029e0:	c6 45 20 00          	movb   $0x0,0x20(%rbp)
  4029e4:	89 df                	mov    %ebx,%edi
  4029e6:	e8 c5 e2 ff ff       	callq  400cb0 <close@plt>
  4029eb:	b8 ff ff ff ff       	mov    $0xffffffff,%eax
  4029f0:	eb 79                	jmp    402a6b <init_driver+0x199>
  4029f2:	ba 10 00 00 00       	mov    $0x10,%edx
  4029f7:	48 89 e6             	mov    %rsp,%rsi
  4029fa:	89 df                	mov    %ebx,%edi
  4029fc:	e8 ef e3 ff ff       	callq  400df0 <connect@plt>
  402a01:	85 c0                	test   %eax,%eax
  402a03:	79 50                	jns    402a55 <init_driver+0x183>
  402a05:	48 b8 45 72 72 6f 72 	movabs $0x55203a726f727245,%rax
  402a0c:	3a 20 55 
  402a0f:	48 89 45 00          	mov    %rax,0x0(%rbp)
  402a13:	48 b8 6e 61 62 6c 65 	movabs $0x6f7420656c62616e,%rax
  402a1a:	20 74 6f 
  402a1d:	48 89 45 08          	mov    %rax,0x8(%rbp)
  402a21:	48 b8 20 63 6f 6e 6e 	movabs $0x7463656e6e6f6320,%rax
  402a28:	65 63 74 
  402a2b:	48 89 45 10          	mov    %rax,0x10(%rbp)
  402a2f:	48 b8 20 74 6f 20 73 	movabs $0x76726573206f7420,%rax
  402a36:	65 72 76 
  402a39:	48 89 45 18          	mov    %rax,0x18(%rbp)
  402a3d:	66 c7 45 20 65 72    	movw   $0x7265,0x20(%rbp)
  402a43:	c6 45 22 00          	movb   $0x0,0x22(%rbp)
  402a47:	89 df                	mov    %ebx,%edi
  402a49:	e8 62 e2 ff ff       	callq  400cb0 <close@plt>
  402a4e:	b8 ff ff ff ff       	mov    $0xffffffff,%eax
  402a53:	eb 16                	jmp    402a6b <init_driver+0x199>
  402a55:	89 df                	mov    %ebx,%edi
  402a57:	e8 54 e2 ff ff       	callq  400cb0 <close@plt>
  402a5c:	66 c7 45 00 4f 4b    	movw   $0x4b4f,0x0(%rbp)
  402a62:	c6 45 02 00          	movb   $0x0,0x2(%rbp)
  402a66:	b8 00 00 00 00       	mov    $0x0,%eax
  402a6b:	48 83 c4 18          	add    $0x18,%rsp
  402a6f:	5b                   	pop    %rbx
  402a70:	5d                   	pop    %rbp
  402a71:	c3                   	retq   

0000000000402a72 <driver_post>:
  402a72:	53                   	push   %rbx
  402a73:	48 83 ec 10          	sub    $0x10,%rsp
  402a77:	4c 89 cb             	mov    %r9,%rbx
  402a7a:	45 85 c0             	test   %r8d,%r8d
  402a7d:	74 22                	je     402aa1 <driver_post+0x2f>
  402a7f:	48 89 ce             	mov    %rcx,%rsi
  402a82:	bf ab 33 40 00       	mov    $0x4033ab,%edi
  402a87:	b8 00 00 00 00       	mov    $0x0,%eax
  402a8c:	e8 ef e1 ff ff       	callq  400c80 <printf@plt>
  402a91:	66 c7 03 4f 4b       	movw   $0x4b4f,(%rbx)
  402a96:	c6 43 02 00          	movb   $0x0,0x2(%rbx)
  402a9a:	b8 00 00 00 00       	mov    $0x0,%eax
  402a9f:	eb 39                	jmp    402ada <driver_post+0x68>
  402aa1:	48 85 ff             	test   %rdi,%rdi
  402aa4:	74 26                	je     402acc <driver_post+0x5a>
  402aa6:	80 3f 00             	cmpb   $0x0,(%rdi)
  402aa9:	74 21                	je     402acc <driver_post+0x5a>
  402aab:	4c 89 0c 24          	mov    %r9,(%rsp)
  402aaf:	49 89 c9             	mov    %rcx,%r9
  402ab2:	49 89 d0             	mov    %rdx,%r8
  402ab5:	48 89 f9             	mov    %rdi,%rcx
  402ab8:	48 89 f2             	mov    %rsi,%rdx
  402abb:	be 9a 3c 00 00       	mov    $0x3c9a,%esi
  402ac0:	bf 9e 33 40 00       	mov    $0x40339e,%edi
  402ac5:	e8 ad f6 ff ff       	callq  402177 <submitr>
  402aca:	eb 0e                	jmp    402ada <driver_post+0x68>
  402acc:	66 c7 03 4f 4b       	movw   $0x4b4f,(%rbx)
  402ad1:	c6 43 02 00          	movb   $0x0,0x2(%rbx)
  402ad5:	b8 00 00 00 00       	mov    $0x0,%eax
  402ada:	48 83 c4 10          	add    $0x10,%rsp
  402ade:	5b                   	pop    %rbx
  402adf:	c3                   	retq   

0000000000402ae0 <check>:
  402ae0:	89 f8                	mov    %edi,%eax
  402ae2:	c1 e8 1c             	shr    $0x1c,%eax
  402ae5:	85 c0                	test   %eax,%eax
  402ae7:	74 1d                	je     402b06 <check+0x26>
  402ae9:	b9 00 00 00 00       	mov    $0x0,%ecx
  402aee:	eb 0b                	jmp    402afb <check+0x1b>
  402af0:	89 f8                	mov    %edi,%eax
  402af2:	d3 e8                	shr    %cl,%eax
  402af4:	3c 0a                	cmp    $0xa,%al
  402af6:	74 14                	je     402b0c <check+0x2c>
  402af8:	83 c1 08             	add    $0x8,%ecx
  402afb:	83 f9 1f             	cmp    $0x1f,%ecx
  402afe:	7e f0                	jle    402af0 <check+0x10>
  402b00:	b8 01 00 00 00       	mov    $0x1,%eax
  402b05:	c3                   	retq   
  402b06:	b8 00 00 00 00       	mov    $0x0,%eax
  402b0b:	c3                   	retq   
  402b0c:	b8 00 00 00 00       	mov    $0x0,%eax
  402b11:	c3                   	retq   

0000000000402b12 <gencookie>:
  402b12:	53                   	push   %rbx
  402b13:	83 c7 01             	add    $0x1,%edi
  402b16:	e8 05 e1 ff ff       	callq  400c20 <srandom@plt>
  402b1b:	e8 30 e2 ff ff       	callq  400d50 <random@plt>
  402b20:	89 c3                	mov    %eax,%ebx
  402b22:	89 c7                	mov    %eax,%edi
  402b24:	e8 b7 ff ff ff       	callq  402ae0 <check>
  402b29:	85 c0                	test   %eax,%eax
  402b2b:	74 ee                	je     402b1b <gencookie+0x9>
  402b2d:	89 d8                	mov    %ebx,%eax
  402b2f:	5b                   	pop    %rbx
  402b30:	c3                   	retq   
  402b31:	66 2e 0f 1f 84 00 00 	nopw   %cs:0x0(%rax,%rax,1)
  402b38:	00 00 00 
  402b3b:	0f 1f 44 00 00       	nopl   0x0(%rax,%rax,1)

0000000000402b40 <__libc_csu_init>:
  402b40:	41 57                	push   %r15
  402b42:	41 89 ff             	mov    %edi,%r15d
  402b45:	41 56                	push   %r14
  402b47:	49 89 f6             	mov    %rsi,%r14
  402b4a:	41 55                	push   %r13
  402b4c:	49 89 d5             	mov    %rdx,%r13
  402b4f:	41 54                	push   %r12
  402b51:	4c 8d 25 b8 12 20 00 	lea    0x2012b8(%rip),%r12        # 603e10 <__frame_dummy_init_array_entry>
  402b58:	55                   	push   %rbp
  402b59:	48 8d 2d b8 12 20 00 	lea    0x2012b8(%rip),%rbp        # 603e18 <__do_global_dtors_aux_fini_array_entry>
  402b60:	53                   	push   %rbx
  402b61:	4c 29 e5             	sub    %r12,%rbp
  402b64:	31 db                	xor    %ebx,%ebx
  402b66:	48 c1 fd 03          	sar    $0x3,%rbp
  402b6a:	48 83 ec 08          	sub    $0x8,%rsp
  402b6e:	e8 4d e0 ff ff       	callq  400bc0 <_init>
  402b73:	48 85 ed             	test   %rbp,%rbp
  402b76:	74 1e                	je     402b96 <__libc_csu_init+0x56>
  402b78:	0f 1f 84 00 00 00 00 	nopl   0x0(%rax,%rax,1)
  402b7f:	00 
  402b80:	4c 89 ea             	mov    %r13,%rdx
  402b83:	4c 89 f6             	mov    %r14,%rsi
  402b86:	44 89 ff             	mov    %r15d,%edi
  402b89:	41 ff 14 dc          	callq  *(%r12,%rbx,8)
  402b8d:	48 83 c3 01          	add    $0x1,%rbx
  402b91:	48 39 eb             	cmp    %rbp,%rbx
  402b94:	75 ea                	jne    402b80 <__libc_csu_init+0x40>
  402b96:	48 83 c4 08          	add    $0x8,%rsp
  402b9a:	5b                   	pop    %rbx
  402b9b:	5d                   	pop    %rbp
  402b9c:	41 5c                	pop    %r12
  402b9e:	41 5d                	pop    %r13
  402ba0:	41 5e                	pop    %r14
  402ba2:	41 5f                	pop    %r15
  402ba4:	c3                   	retq   
  402ba5:	90                   	nop
  402ba6:	66 2e 0f 1f 84 00 00 	nopw   %cs:0x0(%rax,%rax,1)
  402bad:	00 00 00 

0000000000402bb0 <__libc_csu_fini>:
  402bb0:	f3 c3                	repz retq 

Disassembly of section .fini:

0000000000402bb4 <_fini>:
  402bb4:	48 83 ec 08          	sub    $0x8,%rsp
  402bb8:	48 83 c4 08          	add    $0x8,%rsp
  402bbc:	c3                   	retq   
