
rtarget:     file format elf64-x86-64


Disassembly of section .init:

0000000000400bc0 <_init>:
  400bc0:	48 83 ec 08          	sub    $0x8,%rsp
  400bc4:	48 8b 05 2d 44 20 00 	mov    0x20442d(%rip),%rax        # 604ff8 <__gmon_start__>
  400bcb:	48 85 c0             	test   %rax,%rax
  400bce:	74 05                	je     400bd5 <_init+0x15>
  400bd0:	e8 2b 01 00 00       	callq  400d00 <__gmon_start__@plt>
  400bd5:	48 83 c4 08          	add    $0x8,%rsp
  400bd9:	c3                   	retq   

Disassembly of section .plt:

0000000000400be0 <.plt>:
  400be0:	ff 35 22 44 20 00    	pushq  0x204422(%rip)        # 605008 <_GLOBAL_OFFSET_TABLE_+0x8>
  400be6:	ff 25 24 44 20 00    	jmpq   *0x204424(%rip)        # 605010 <_GLOBAL_OFFSET_TABLE_+0x10>
  400bec:	0f 1f 40 00          	nopl   0x0(%rax)

0000000000400bf0 <getenv@plt>:
  400bf0:	ff 25 22 44 20 00    	jmpq   *0x204422(%rip)        # 605018 <getenv@GLIBC_2.2.5>
  400bf6:	68 00 00 00 00       	pushq  $0x0
  400bfb:	e9 e0 ff ff ff       	jmpq   400be0 <.plt>

0000000000400c00 <strcasecmp@plt>:
  400c00:	ff 25 1a 44 20 00    	jmpq   *0x20441a(%rip)        # 605020 <strcasecmp@GLIBC_2.2.5>
  400c06:	68 01 00 00 00       	pushq  $0x1
  400c0b:	e9 d0 ff ff ff       	jmpq   400be0 <.plt>

0000000000400c10 <__errno_location@plt>:
  400c10:	ff 25 12 44 20 00    	jmpq   *0x204412(%rip)        # 605028 <__errno_location@GLIBC_2.2.5>
  400c16:	68 02 00 00 00       	pushq  $0x2
  400c1b:	e9 c0 ff ff ff       	jmpq   400be0 <.plt>

0000000000400c20 <srandom@plt>:
  400c20:	ff 25 0a 44 20 00    	jmpq   *0x20440a(%rip)        # 605030 <srandom@GLIBC_2.2.5>
  400c26:	68 03 00 00 00       	pushq  $0x3
  400c2b:	e9 b0 ff ff ff       	jmpq   400be0 <.plt>

0000000000400c30 <strncmp@plt>:
  400c30:	ff 25 02 44 20 00    	jmpq   *0x204402(%rip)        # 605038 <strncmp@GLIBC_2.2.5>
  400c36:	68 04 00 00 00       	pushq  $0x4
  400c3b:	e9 a0 ff ff ff       	jmpq   400be0 <.plt>

0000000000400c40 <strcpy@plt>:
  400c40:	ff 25 fa 43 20 00    	jmpq   *0x2043fa(%rip)        # 605040 <strcpy@GLIBC_2.2.5>
  400c46:	68 05 00 00 00       	pushq  $0x5
  400c4b:	e9 90 ff ff ff       	jmpq   400be0 <.plt>

0000000000400c50 <puts@plt>:
  400c50:	ff 25 f2 43 20 00    	jmpq   *0x2043f2(%rip)        # 605048 <puts@GLIBC_2.2.5>
  400c56:	68 06 00 00 00       	pushq  $0x6
  400c5b:	e9 80 ff ff ff       	jmpq   400be0 <.plt>

0000000000400c60 <write@plt>:
  400c60:	ff 25 ea 43 20 00    	jmpq   *0x2043ea(%rip)        # 605050 <write@GLIBC_2.2.5>
  400c66:	68 07 00 00 00       	pushq  $0x7
  400c6b:	e9 70 ff ff ff       	jmpq   400be0 <.plt>

0000000000400c70 <mmap@plt>:
  400c70:	ff 25 e2 43 20 00    	jmpq   *0x2043e2(%rip)        # 605058 <mmap@GLIBC_2.2.5>
  400c76:	68 08 00 00 00       	pushq  $0x8
  400c7b:	e9 60 ff ff ff       	jmpq   400be0 <.plt>

0000000000400c80 <printf@plt>:
  400c80:	ff 25 da 43 20 00    	jmpq   *0x2043da(%rip)        # 605060 <printf@GLIBC_2.2.5>
  400c86:	68 09 00 00 00       	pushq  $0x9
  400c8b:	e9 50 ff ff ff       	jmpq   400be0 <.plt>

0000000000400c90 <memset@plt>:
  400c90:	ff 25 d2 43 20 00    	jmpq   *0x2043d2(%rip)        # 605068 <memset@GLIBC_2.2.5>
  400c96:	68 0a 00 00 00       	pushq  $0xa
  400c9b:	e9 40 ff ff ff       	jmpq   400be0 <.plt>

0000000000400ca0 <alarm@plt>:
  400ca0:	ff 25 ca 43 20 00    	jmpq   *0x2043ca(%rip)        # 605070 <alarm@GLIBC_2.2.5>
  400ca6:	68 0b 00 00 00       	pushq  $0xb
  400cab:	e9 30 ff ff ff       	jmpq   400be0 <.plt>

0000000000400cb0 <close@plt>:
  400cb0:	ff 25 c2 43 20 00    	jmpq   *0x2043c2(%rip)        # 605078 <close@GLIBC_2.2.5>
  400cb6:	68 0c 00 00 00       	pushq  $0xc
  400cbb:	e9 20 ff ff ff       	jmpq   400be0 <.plt>

0000000000400cc0 <read@plt>:
  400cc0:	ff 25 ba 43 20 00    	jmpq   *0x2043ba(%rip)        # 605080 <read@GLIBC_2.2.5>
  400cc6:	68 0d 00 00 00       	pushq  $0xd
  400ccb:	e9 10 ff ff ff       	jmpq   400be0 <.plt>

0000000000400cd0 <__libc_start_main@plt>:
  400cd0:	ff 25 b2 43 20 00    	jmpq   *0x2043b2(%rip)        # 605088 <__libc_start_main@GLIBC_2.2.5>
  400cd6:	68 0e 00 00 00       	pushq  $0xe
  400cdb:	e9 00 ff ff ff       	jmpq   400be0 <.plt>

0000000000400ce0 <signal@plt>:
  400ce0:	ff 25 aa 43 20 00    	jmpq   *0x2043aa(%rip)        # 605090 <signal@GLIBC_2.2.5>
  400ce6:	68 0f 00 00 00       	pushq  $0xf
  400ceb:	e9 f0 fe ff ff       	jmpq   400be0 <.plt>

0000000000400cf0 <fprintf@plt>:
  400cf0:	ff 25 a2 43 20 00    	jmpq   *0x2043a2(%rip)        # 605098 <fprintf@GLIBC_2.2.5>
  400cf6:	68 10 00 00 00       	pushq  $0x10
  400cfb:	e9 e0 fe ff ff       	jmpq   400be0 <.plt>

0000000000400d00 <__gmon_start__@plt>:
  400d00:	ff 25 9a 43 20 00    	jmpq   *0x20439a(%rip)        # 6050a0 <__gmon_start__>
  400d06:	68 11 00 00 00       	pushq  $0x11
  400d0b:	e9 d0 fe ff ff       	jmpq   400be0 <.plt>

0000000000400d10 <strtol@plt>:
  400d10:	ff 25 92 43 20 00    	jmpq   *0x204392(%rip)        # 6050a8 <strtol@GLIBC_2.2.5>
  400d16:	68 12 00 00 00       	pushq  $0x12
  400d1b:	e9 c0 fe ff ff       	jmpq   400be0 <.plt>

0000000000400d20 <memcpy@plt>:
  400d20:	ff 25 8a 43 20 00    	jmpq   *0x20438a(%rip)        # 6050b0 <memcpy@GLIBC_2.14>
  400d26:	68 13 00 00 00       	pushq  $0x13
  400d2b:	e9 b0 fe ff ff       	jmpq   400be0 <.plt>

0000000000400d30 <inet_pton@plt>:
  400d30:	ff 25 82 43 20 00    	jmpq   *0x204382(%rip)        # 6050b8 <inet_pton@GLIBC_2.2.5>
  400d36:	68 14 00 00 00       	pushq  $0x14
  400d3b:	e9 a0 fe ff ff       	jmpq   400be0 <.plt>

0000000000400d40 <time@plt>:
  400d40:	ff 25 7a 43 20 00    	jmpq   *0x20437a(%rip)        # 6050c0 <time@GLIBC_2.2.5>
  400d46:	68 15 00 00 00       	pushq  $0x15
  400d4b:	e9 90 fe ff ff       	jmpq   400be0 <.plt>

0000000000400d50 <random@plt>:
  400d50:	ff 25 72 43 20 00    	jmpq   *0x204372(%rip)        # 6050c8 <random@GLIBC_2.2.5>
  400d56:	68 16 00 00 00       	pushq  $0x16
  400d5b:	e9 80 fe ff ff       	jmpq   400be0 <.plt>

0000000000400d60 <_IO_getc@plt>:
  400d60:	ff 25 6a 43 20 00    	jmpq   *0x20436a(%rip)        # 6050d0 <_IO_getc@GLIBC_2.2.5>
  400d66:	68 17 00 00 00       	pushq  $0x17
  400d6b:	e9 70 fe ff ff       	jmpq   400be0 <.plt>

0000000000400d70 <__isoc99_sscanf@plt>:
  400d70:	ff 25 62 43 20 00    	jmpq   *0x204362(%rip)        # 6050d8 <__isoc99_sscanf@GLIBC_2.7>
  400d76:	68 18 00 00 00       	pushq  $0x18
  400d7b:	e9 60 fe ff ff       	jmpq   400be0 <.plt>

0000000000400d80 <munmap@plt>:
  400d80:	ff 25 5a 43 20 00    	jmpq   *0x20435a(%rip)        # 6050e0 <munmap@GLIBC_2.2.5>
  400d86:	68 19 00 00 00       	pushq  $0x19
  400d8b:	e9 50 fe ff ff       	jmpq   400be0 <.plt>

0000000000400d90 <fopen@plt>:
  400d90:	ff 25 52 43 20 00    	jmpq   *0x204352(%rip)        # 6050e8 <fopen@GLIBC_2.2.5>
  400d96:	68 1a 00 00 00       	pushq  $0x1a
  400d9b:	e9 40 fe ff ff       	jmpq   400be0 <.plt>

0000000000400da0 <getopt@plt>:
  400da0:	ff 25 4a 43 20 00    	jmpq   *0x20434a(%rip)        # 6050f0 <getopt@GLIBC_2.2.5>
  400da6:	68 1b 00 00 00       	pushq  $0x1b
  400dab:	e9 30 fe ff ff       	jmpq   400be0 <.plt>

0000000000400db0 <strtoul@plt>:
  400db0:	ff 25 42 43 20 00    	jmpq   *0x204342(%rip)        # 6050f8 <strtoul@GLIBC_2.2.5>
  400db6:	68 1c 00 00 00       	pushq  $0x1c
  400dbb:	e9 20 fe ff ff       	jmpq   400be0 <.plt>

0000000000400dc0 <gethostname@plt>:
  400dc0:	ff 25 3a 43 20 00    	jmpq   *0x20433a(%rip)        # 605100 <gethostname@GLIBC_2.2.5>
  400dc6:	68 1d 00 00 00       	pushq  $0x1d
  400dcb:	e9 10 fe ff ff       	jmpq   400be0 <.plt>

0000000000400dd0 <sprintf@plt>:
  400dd0:	ff 25 32 43 20 00    	jmpq   *0x204332(%rip)        # 605108 <sprintf@GLIBC_2.2.5>
  400dd6:	68 1e 00 00 00       	pushq  $0x1e
  400ddb:	e9 00 fe ff ff       	jmpq   400be0 <.plt>

0000000000400de0 <exit@plt>:
  400de0:	ff 25 2a 43 20 00    	jmpq   *0x20432a(%rip)        # 605110 <exit@GLIBC_2.2.5>
  400de6:	68 1f 00 00 00       	pushq  $0x1f
  400deb:	e9 f0 fd ff ff       	jmpq   400be0 <.plt>

0000000000400df0 <connect@plt>:
  400df0:	ff 25 22 43 20 00    	jmpq   *0x204322(%rip)        # 605118 <connect@GLIBC_2.2.5>
  400df6:	68 20 00 00 00       	pushq  $0x20
  400dfb:	e9 e0 fd ff ff       	jmpq   400be0 <.plt>

0000000000400e00 <socket@plt>:
  400e00:	ff 25 1a 43 20 00    	jmpq   *0x20431a(%rip)        # 605120 <socket@GLIBC_2.2.5>
  400e06:	68 21 00 00 00       	pushq  $0x21
  400e0b:	e9 d0 fd ff ff       	jmpq   400be0 <.plt>

Disassembly of section .text:

0000000000400e10 <_start>:
  400e10:	31 ed                	xor    %ebp,%ebp
  400e12:	49 89 d1             	mov    %rdx,%r9
  400e15:	5e                   	pop    %rsi
  400e16:	48 89 e2             	mov    %rsp,%rdx
  400e19:	48 83 e4 f0          	and    $0xfffffffffffffff0,%rsp
  400e1d:	50                   	push   %rax
  400e1e:	54                   	push   %rsp
  400e1f:	49 c7 c0 d0 2c 40 00 	mov    $0x402cd0,%r8
  400e26:	48 c7 c1 60 2c 40 00 	mov    $0x402c60,%rcx
  400e2d:	48 c7 c7 a5 10 40 00 	mov    $0x4010a5,%rdi
  400e34:	e8 97 fe ff ff       	callq  400cd0 <__libc_start_main@plt>
  400e39:	f4                   	hlt    
  400e3a:	66 0f 1f 44 00 00    	nopw   0x0(%rax,%rax,1)

0000000000400e40 <deregister_tm_clones>:
  400e40:	b8 b7 54 60 00       	mov    $0x6054b7,%eax
  400e45:	55                   	push   %rbp
  400e46:	48 2d b0 54 60 00    	sub    $0x6054b0,%rax
  400e4c:	48 83 f8 0e          	cmp    $0xe,%rax
  400e50:	48 89 e5             	mov    %rsp,%rbp
  400e53:	77 02                	ja     400e57 <deregister_tm_clones+0x17>
  400e55:	5d                   	pop    %rbp
  400e56:	c3                   	retq   
  400e57:	b8 00 00 00 00       	mov    $0x0,%eax
  400e5c:	48 85 c0             	test   %rax,%rax
  400e5f:	74 f4                	je     400e55 <deregister_tm_clones+0x15>
  400e61:	5d                   	pop    %rbp
  400e62:	bf b0 54 60 00       	mov    $0x6054b0,%edi
  400e67:	ff e0                	jmpq   *%rax
  400e69:	0f 1f 80 00 00 00 00 	nopl   0x0(%rax)

0000000000400e70 <register_tm_clones>:
  400e70:	b8 b0 54 60 00       	mov    $0x6054b0,%eax
  400e75:	55                   	push   %rbp
  400e76:	48 2d b0 54 60 00    	sub    $0x6054b0,%rax
  400e7c:	48 c1 f8 03          	sar    $0x3,%rax
  400e80:	48 89 e5             	mov    %rsp,%rbp
  400e83:	48 89 c2             	mov    %rax,%rdx
  400e86:	48 c1 ea 3f          	shr    $0x3f,%rdx
  400e8a:	48 01 d0             	add    %rdx,%rax
  400e8d:	48 d1 f8             	sar    %rax
  400e90:	75 02                	jne    400e94 <register_tm_clones+0x24>
  400e92:	5d                   	pop    %rbp
  400e93:	c3                   	retq   
  400e94:	ba 00 00 00 00       	mov    $0x0,%edx
  400e99:	48 85 d2             	test   %rdx,%rdx
  400e9c:	74 f4                	je     400e92 <register_tm_clones+0x22>
  400e9e:	5d                   	pop    %rbp
  400e9f:	48 89 c6             	mov    %rax,%rsi
  400ea2:	bf b0 54 60 00       	mov    $0x6054b0,%edi
  400ea7:	ff e2                	jmpq   *%rdx
  400ea9:	0f 1f 80 00 00 00 00 	nopl   0x0(%rax)

0000000000400eb0 <__do_global_dtors_aux>:
  400eb0:	80 3d 21 46 20 00 00 	cmpb   $0x0,0x204621(%rip)        # 6054d8 <completed.6355>
  400eb7:	75 11                	jne    400eca <__do_global_dtors_aux+0x1a>
  400eb9:	55                   	push   %rbp
  400eba:	48 89 e5             	mov    %rsp,%rbp
  400ebd:	e8 7e ff ff ff       	callq  400e40 <deregister_tm_clones>
  400ec2:	5d                   	pop    %rbp
  400ec3:	c6 05 0e 46 20 00 01 	movb   $0x1,0x20460e(%rip)        # 6054d8 <completed.6355>
  400eca:	f3 c3                	repz retq 
  400ecc:	0f 1f 40 00          	nopl   0x0(%rax)

0000000000400ed0 <frame_dummy>:
  400ed0:	48 83 3d 48 3f 20 00 	cmpq   $0x0,0x203f48(%rip)        # 604e20 <__JCR_END__>
  400ed7:	00 
  400ed8:	74 1e                	je     400ef8 <frame_dummy+0x28>
  400eda:	b8 00 00 00 00       	mov    $0x0,%eax
  400edf:	48 85 c0             	test   %rax,%rax
  400ee2:	74 14                	je     400ef8 <frame_dummy+0x28>
  400ee4:	55                   	push   %rbp
  400ee5:	bf 20 4e 60 00       	mov    $0x604e20,%edi
  400eea:	48 89 e5             	mov    %rsp,%rbp
  400eed:	ff d0                	callq  *%rax
  400eef:	5d                   	pop    %rbp
  400ef0:	e9 7b ff ff ff       	jmpq   400e70 <register_tm_clones>
  400ef5:	0f 1f 00             	nopl   (%rax)
  400ef8:	e9 73 ff ff ff       	jmpq   400e70 <register_tm_clones>
  400efd:	0f 1f 00             	nopl   (%rax)

0000000000400f00 <usage>:
  400f00:	48 83 ec 08          	sub    $0x8,%rsp
  400f04:	48 89 fe             	mov    %rdi,%rsi
  400f07:	83 3d fa 45 20 00 00 	cmpl   $0x0,0x2045fa(%rip)        # 605508 <is_checker>
  400f0e:	74 39                	je     400f49 <usage+0x49>
  400f10:	bf f0 2c 40 00       	mov    $0x402cf0,%edi
  400f15:	b8 00 00 00 00       	mov    $0x0,%eax
  400f1a:	e8 61 fd ff ff       	callq  400c80 <printf@plt>
  400f1f:	bf 28 2d 40 00       	mov    $0x402d28,%edi
  400f24:	e8 27 fd ff ff       	callq  400c50 <puts@plt>
  400f29:	bf 60 2e 40 00       	mov    $0x402e60,%edi
  400f2e:	e8 1d fd ff ff       	callq  400c50 <puts@plt>
  400f33:	bf 50 2d 40 00       	mov    $0x402d50,%edi
  400f38:	e8 13 fd ff ff       	callq  400c50 <puts@plt>
  400f3d:	bf 7a 2e 40 00       	mov    $0x402e7a,%edi
  400f42:	e8 09 fd ff ff       	callq  400c50 <puts@plt>
  400f47:	eb 2d                	jmp    400f76 <usage+0x76>
  400f49:	bf 96 2e 40 00       	mov    $0x402e96,%edi
  400f4e:	b8 00 00 00 00       	mov    $0x0,%eax
  400f53:	e8 28 fd ff ff       	callq  400c80 <printf@plt>
  400f58:	bf 78 2d 40 00       	mov    $0x402d78,%edi
  400f5d:	e8 ee fc ff ff       	callq  400c50 <puts@plt>
  400f62:	bf a0 2d 40 00       	mov    $0x402da0,%edi
  400f67:	e8 e4 fc ff ff       	callq  400c50 <puts@plt>
  400f6c:	bf b4 2e 40 00       	mov    $0x402eb4,%edi
  400f71:	e8 da fc ff ff       	callq  400c50 <puts@plt>
  400f76:	bf 00 00 00 00       	mov    $0x0,%edi
  400f7b:	e8 60 fe ff ff       	callq  400de0 <exit@plt>

0000000000400f80 <initialize_target>:
  400f80:	55                   	push   %rbp
  400f81:	53                   	push   %rbx
  400f82:	48 81 ec 08 21 00 00 	sub    $0x2108,%rsp
  400f89:	89 f5                	mov    %esi,%ebp
  400f8b:	89 3d 67 45 20 00    	mov    %edi,0x204567(%rip)        # 6054f8 <check_level>
  400f91:	8b 3d d1 41 20 00    	mov    0x2041d1(%rip),%edi        # 605168 <target_id>
  400f97:	e8 96 1c 00 00       	callq  402c32 <gencookie>
  400f9c:	89 05 62 45 20 00    	mov    %eax,0x204562(%rip)        # 605504 <cookie>
  400fa2:	89 c7                	mov    %eax,%edi
  400fa4:	e8 89 1c 00 00       	callq  402c32 <gencookie>
  400fa9:	89 05 51 45 20 00    	mov    %eax,0x204551(%rip)        # 605500 <authkey>
  400faf:	8b 05 b3 41 20 00    	mov    0x2041b3(%rip),%eax        # 605168 <target_id>
  400fb5:	8d 78 01             	lea    0x1(%rax),%edi
  400fb8:	e8 63 fc ff ff       	callq  400c20 <srandom@plt>
  400fbd:	e8 8e fd ff ff       	callq  400d50 <random@plt>
  400fc2:	89 c7                	mov    %eax,%edi
  400fc4:	e8 9f 02 00 00       	callq  401268 <scramble>
  400fc9:	89 c3                	mov    %eax,%ebx
  400fcb:	85 ed                	test   %ebp,%ebp
  400fcd:	74 18                	je     400fe7 <initialize_target+0x67>
  400fcf:	bf 00 00 00 00       	mov    $0x0,%edi
  400fd4:	e8 67 fd ff ff       	callq  400d40 <time@plt>
  400fd9:	89 c7                	mov    %eax,%edi
  400fdb:	e8 40 fc ff ff       	callq  400c20 <srandom@plt>
  400fe0:	e8 6b fd ff ff       	callq  400d50 <random@plt>
  400fe5:	eb 05                	jmp    400fec <initialize_target+0x6c>
  400fe7:	b8 00 00 00 00       	mov    $0x0,%eax
  400fec:	01 c3                	add    %eax,%ebx
  400fee:	0f b7 db             	movzwl %bx,%ebx
  400ff1:	8d 04 dd 00 01 00 00 	lea    0x100(,%rbx,8),%eax
  400ff8:	89 c0                	mov    %eax,%eax
  400ffa:	48 89 05 9f 44 20 00 	mov    %rax,0x20449f(%rip)        # 6054a0 <buf_offset>
  401001:	c6 05 20 51 20 00 72 	movb   $0x72,0x205120(%rip)        # 606128 <target_prefix>
  401008:	83 3d 99 44 20 00 00 	cmpl   $0x0,0x204499(%rip)        # 6054a8 <notify>
  40100f:	0f 84 86 00 00 00    	je     40109b <initialize_target+0x11b>
  401015:	83 3d ec 44 20 00 00 	cmpl   $0x0,0x2044ec(%rip)        # 605508 <is_checker>
  40101c:	75 7d                	jne    40109b <initialize_target+0x11b>
  40101e:	be 00 01 00 00       	mov    $0x100,%esi
  401023:	48 89 e7             	mov    %rsp,%rdi
  401026:	e8 95 fd ff ff       	callq  400dc0 <gethostname@plt>
  40102b:	85 c0                	test   %eax,%eax
  40102d:	74 25                	je     401054 <initialize_target+0xd4>
  40102f:	bf d0 2d 40 00       	mov    $0x402dd0,%edi
  401034:	e8 17 fc ff ff       	callq  400c50 <puts@plt>
  401039:	bf 08 00 00 00       	mov    $0x8,%edi
  40103e:	e8 9d fd ff ff       	callq  400de0 <exit@plt>
  401043:	48 89 e6             	mov    %rsp,%rsi
  401046:	e8 b5 fb ff ff       	callq  400c00 <strcasecmp@plt>
  40104b:	85 c0                	test   %eax,%eax
  40104d:	74 1a                	je     401069 <initialize_target+0xe9>
  40104f:	83 c3 01             	add    $0x1,%ebx
  401052:	eb 05                	jmp    401059 <initialize_target+0xd9>
  401054:	bb 00 00 00 00       	mov    $0x0,%ebx
  401059:	48 63 c3             	movslq %ebx,%rax
  40105c:	48 8b 3c c5 80 51 60 	mov    0x605180(,%rax,8),%rdi
  401063:	00 
  401064:	48 85 ff             	test   %rdi,%rdi
  401067:	75 da                	jne    401043 <initialize_target+0xc3>
  401069:	48 8d bc 24 00 01 00 	lea    0x100(%rsp),%rdi
  401070:	00 
  401071:	e8 7c 19 00 00       	callq  4029f2 <init_driver>
  401076:	85 c0                	test   %eax,%eax
  401078:	79 21                	jns    40109b <initialize_target+0x11b>
  40107a:	48 8d b4 24 00 01 00 	lea    0x100(%rsp),%rsi
  401081:	00 
  401082:	bf 08 2e 40 00       	mov    $0x402e08,%edi
  401087:	b8 00 00 00 00       	mov    $0x0,%eax
  40108c:	e8 ef fb ff ff       	callq  400c80 <printf@plt>
  401091:	bf 08 00 00 00       	mov    $0x8,%edi
  401096:	e8 45 fd ff ff       	callq  400de0 <exit@plt>
  40109b:	48 81 c4 08 21 00 00 	add    $0x2108,%rsp
  4010a2:	5b                   	pop    %rbx
  4010a3:	5d                   	pop    %rbp
  4010a4:	c3                   	retq   

00000000004010a5 <main>:
  4010a5:	41 56                	push   %r14
  4010a7:	41 55                	push   %r13
  4010a9:	41 54                	push   %r12
  4010ab:	55                   	push   %rbp
  4010ac:	53                   	push   %rbx
  4010ad:	41 89 fc             	mov    %edi,%r12d
  4010b0:	48 89 f3             	mov    %rsi,%rbx
  4010b3:	be 01 1e 40 00       	mov    $0x401e01,%esi
  4010b8:	bf 0b 00 00 00       	mov    $0xb,%edi
  4010bd:	e8 1e fc ff ff       	callq  400ce0 <signal@plt>
  4010c2:	be b3 1d 40 00       	mov    $0x401db3,%esi
  4010c7:	bf 07 00 00 00       	mov    $0x7,%edi
  4010cc:	e8 0f fc ff ff       	callq  400ce0 <signal@plt>
  4010d1:	be 4f 1e 40 00       	mov    $0x401e4f,%esi
  4010d6:	bf 04 00 00 00       	mov    $0x4,%edi
  4010db:	e8 00 fc ff ff       	callq  400ce0 <signal@plt>
  4010e0:	83 3d 21 44 20 00 00 	cmpl   $0x0,0x204421(%rip)        # 605508 <is_checker>
  4010e7:	74 20                	je     401109 <main+0x64>
  4010e9:	be 9d 1e 40 00       	mov    $0x401e9d,%esi
  4010ee:	bf 0e 00 00 00       	mov    $0xe,%edi
  4010f3:	e8 e8 fb ff ff       	callq  400ce0 <signal@plt>
  4010f8:	bf 05 00 00 00       	mov    $0x5,%edi
  4010fd:	e8 9e fb ff ff       	callq  400ca0 <alarm@plt>
  401102:	bd d2 2e 40 00       	mov    $0x402ed2,%ebp
  401107:	eb 05                	jmp    40110e <main+0x69>
  401109:	bd cd 2e 40 00       	mov    $0x402ecd,%ebp
  40110e:	48 8b 05 ab 43 20 00 	mov    0x2043ab(%rip),%rax        # 6054c0 <stdin@@GLIBC_2.2.5>
  401115:	48 89 05 d4 43 20 00 	mov    %rax,0x2043d4(%rip)        # 6054f0 <infile>
  40111c:	41 bd 00 00 00 00    	mov    $0x0,%r13d
  401122:	41 be 00 00 00 00    	mov    $0x0,%r14d
  401128:	e9 b9 00 00 00       	jmpq   4011e6 <main+0x141>
  40112d:	83 e8 61             	sub    $0x61,%eax
  401130:	3c 10                	cmp    $0x10,%al
  401132:	0f 87 93 00 00 00    	ja     4011cb <main+0x126>
  401138:	0f b6 c0             	movzbl %al,%eax
  40113b:	ff 24 c5 18 2f 40 00 	jmpq   *0x402f18(,%rax,8)
  401142:	48 8b 3b             	mov    (%rbx),%rdi
  401145:	e8 b6 fd ff ff       	callq  400f00 <usage>
  40114a:	be 9d 31 40 00       	mov    $0x40319d,%esi
  40114f:	48 8b 3d 72 43 20 00 	mov    0x204372(%rip),%rdi        # 6054c8 <optarg@@GLIBC_2.2.5>
  401156:	e8 35 fc ff ff       	callq  400d90 <fopen@plt>
  40115b:	48 89 05 8e 43 20 00 	mov    %rax,0x20438e(%rip)        # 6054f0 <infile>
  401162:	48 85 c0             	test   %rax,%rax
  401165:	75 7f                	jne    4011e6 <main+0x141>
  401167:	48 8b 15 5a 43 20 00 	mov    0x20435a(%rip),%rdx        # 6054c8 <optarg@@GLIBC_2.2.5>
  40116e:	be da 2e 40 00       	mov    $0x402eda,%esi
  401173:	48 8b 3d 56 43 20 00 	mov    0x204356(%rip),%rdi        # 6054d0 <stderr@@GLIBC_2.2.5>
  40117a:	e8 71 fb ff ff       	callq  400cf0 <fprintf@plt>
  40117f:	b8 01 00 00 00       	mov    $0x1,%eax
  401184:	e9 d6 00 00 00       	jmpq   40125f <main+0x1ba>
  401189:	ba 10 00 00 00       	mov    $0x10,%edx
  40118e:	be 00 00 00 00       	mov    $0x0,%esi
  401193:	48 8b 3d 2e 43 20 00 	mov    0x20432e(%rip),%rdi        # 6054c8 <optarg@@GLIBC_2.2.5>
  40119a:	e8 11 fc ff ff       	callq  400db0 <strtoul@plt>
  40119f:	41 89 c6             	mov    %eax,%r14d
  4011a2:	eb 42                	jmp    4011e6 <main+0x141>
  4011a4:	ba 0a 00 00 00       	mov    $0xa,%edx
  4011a9:	be 00 00 00 00       	mov    $0x0,%esi
  4011ae:	48 8b 3d 13 43 20 00 	mov    0x204313(%rip),%rdi        # 6054c8 <optarg@@GLIBC_2.2.5>
  4011b5:	e8 56 fb ff ff       	callq  400d10 <strtol@plt>
  4011ba:	41 89 c5             	mov    %eax,%r13d
  4011bd:	eb 27                	jmp    4011e6 <main+0x141>
  4011bf:	c7 05 df 42 20 00 00 	movl   $0x0,0x2042df(%rip)        # 6054a8 <notify>
  4011c6:	00 00 00 
  4011c9:	eb 1b                	jmp    4011e6 <main+0x141>
  4011cb:	40 0f be f6          	movsbl %sil,%esi
  4011cf:	bf f7 2e 40 00       	mov    $0x402ef7,%edi
  4011d4:	b8 00 00 00 00       	mov    $0x0,%eax
  4011d9:	e8 a2 fa ff ff       	callq  400c80 <printf@plt>
  4011de:	48 8b 3b             	mov    (%rbx),%rdi
  4011e1:	e8 1a fd ff ff       	callq  400f00 <usage>
  4011e6:	48 89 ea             	mov    %rbp,%rdx
  4011e9:	48 89 de             	mov    %rbx,%rsi
  4011ec:	44 89 e7             	mov    %r12d,%edi
  4011ef:	e8 ac fb ff ff       	callq  400da0 <getopt@plt>
  4011f4:	89 c6                	mov    %eax,%esi
  4011f6:	3c ff                	cmp    $0xff,%al
  4011f8:	0f 85 2f ff ff ff    	jne    40112d <main+0x88>
  4011fe:	be 01 00 00 00       	mov    $0x1,%esi
  401203:	44 89 ef             	mov    %r13d,%edi
  401206:	e8 75 fd ff ff       	callq  400f80 <initialize_target>
  40120b:	83 3d f6 42 20 00 00 	cmpl   $0x0,0x2042f6(%rip)        # 605508 <is_checker>
  401212:	74 25                	je     401239 <main+0x194>
  401214:	44 3b 35 e5 42 20 00 	cmp    0x2042e5(%rip),%r14d        # 605500 <authkey>
  40121b:	74 1c                	je     401239 <main+0x194>
  40121d:	44 89 f6             	mov    %r14d,%esi
  401220:	bf 30 2e 40 00       	mov    $0x402e30,%edi
  401225:	b8 00 00 00 00       	mov    $0x0,%eax
  40122a:	e8 51 fa ff ff       	callq  400c80 <printf@plt>
  40122f:	b8 00 00 00 00       	mov    $0x0,%eax
  401234:	e8 82 08 00 00       	callq  401abb <check_fail>
  401239:	8b 35 c5 42 20 00    	mov    0x2042c5(%rip),%esi        # 605504 <cookie>
  40123f:	bf 0a 2f 40 00       	mov    $0x402f0a,%edi
  401244:	b8 00 00 00 00       	mov    $0x0,%eax
  401249:	e8 32 fa ff ff       	callq  400c80 <printf@plt>
  40124e:	48 8b 3d 4b 42 20 00 	mov    0x20424b(%rip),%rdi        # 6054a0 <buf_offset>
  401255:	e8 91 0c 00 00       	callq  401eeb <launch>
  40125a:	b8 00 00 00 00       	mov    $0x0,%eax
  40125f:	5b                   	pop    %rbx
  401260:	5d                   	pop    %rbp
  401261:	41 5c                	pop    %r12
  401263:	41 5d                	pop    %r13
  401265:	41 5e                	pop    %r14
  401267:	c3                   	retq   

0000000000401268 <scramble>:
  401268:	b8 00 00 00 00       	mov    $0x0,%eax
  40126d:	eb 11                	jmp    401280 <scramble+0x18>
  40126f:	69 c8 84 62 00 00    	imul   $0x6284,%eax,%ecx
  401275:	01 f9                	add    %edi,%ecx
  401277:	89 c2                	mov    %eax,%edx
  401279:	89 4c 94 d0          	mov    %ecx,-0x30(%rsp,%rdx,4)
  40127d:	83 c0 01             	add    $0x1,%eax
  401280:	83 f8 09             	cmp    $0x9,%eax
  401283:	76 ea                	jbe    40126f <scramble+0x7>
  401285:	8b 44 24 dc          	mov    -0x24(%rsp),%eax
  401289:	69 c0 35 7c 00 00    	imul   $0x7c35,%eax,%eax
  40128f:	89 44 24 dc          	mov    %eax,-0x24(%rsp)
  401293:	8b 44 24 e4          	mov    -0x1c(%rsp),%eax
  401297:	69 c0 fc 1c 00 00    	imul   $0x1cfc,%eax,%eax
  40129d:	89 44 24 e4          	mov    %eax,-0x1c(%rsp)
  4012a1:	8b 44 24 e0          	mov    -0x20(%rsp),%eax
  4012a5:	69 c0 c7 10 00 00    	imul   $0x10c7,%eax,%eax
  4012ab:	89 44 24 e0          	mov    %eax,-0x20(%rsp)
  4012af:	8b 44 24 f0          	mov    -0x10(%rsp),%eax
  4012b3:	69 c0 17 77 00 00    	imul   $0x7717,%eax,%eax
  4012b9:	89 44 24 f0          	mov    %eax,-0x10(%rsp)
  4012bd:	8b 44 24 e0          	mov    -0x20(%rsp),%eax
  4012c1:	69 c0 25 44 00 00    	imul   $0x4425,%eax,%eax
  4012c7:	89 44 24 e0          	mov    %eax,-0x20(%rsp)
  4012cb:	8b 44 24 e0          	mov    -0x20(%rsp),%eax
  4012cf:	69 c0 d7 5f 00 00    	imul   $0x5fd7,%eax,%eax
  4012d5:	89 44 24 e0          	mov    %eax,-0x20(%rsp)
  4012d9:	8b 44 24 e0          	mov    -0x20(%rsp),%eax
  4012dd:	69 c0 2e a4 00 00    	imul   $0xa42e,%eax,%eax
  4012e3:	89 44 24 e0          	mov    %eax,-0x20(%rsp)
  4012e7:	8b 44 24 f4          	mov    -0xc(%rsp),%eax
  4012eb:	69 c0 ee a9 00 00    	imul   $0xa9ee,%eax,%eax
  4012f1:	89 44 24 f4          	mov    %eax,-0xc(%rsp)
  4012f5:	8b 44 24 d8          	mov    -0x28(%rsp),%eax
  4012f9:	69 c0 b5 6e 00 00    	imul   $0x6eb5,%eax,%eax
  4012ff:	89 44 24 d8          	mov    %eax,-0x28(%rsp)
  401303:	8b 44 24 dc          	mov    -0x24(%rsp),%eax
  401307:	69 c0 bb 2c 00 00    	imul   $0x2cbb,%eax,%eax
  40130d:	89 44 24 dc          	mov    %eax,-0x24(%rsp)
  401311:	8b 44 24 d4          	mov    -0x2c(%rsp),%eax
  401315:	69 c0 fb 09 00 00    	imul   $0x9fb,%eax,%eax
  40131b:	89 44 24 d4          	mov    %eax,-0x2c(%rsp)
  40131f:	8b 44 24 e0          	mov    -0x20(%rsp),%eax
  401323:	69 c0 92 83 00 00    	imul   $0x8392,%eax,%eax
  401329:	89 44 24 e0          	mov    %eax,-0x20(%rsp)
  40132d:	8b 44 24 e8          	mov    -0x18(%rsp),%eax
  401331:	69 c0 3c 45 00 00    	imul   $0x453c,%eax,%eax
  401337:	89 44 24 e8          	mov    %eax,-0x18(%rsp)
  40133b:	8b 44 24 e8          	mov    -0x18(%rsp),%eax
  40133f:	69 c0 ad b8 00 00    	imul   $0xb8ad,%eax,%eax
  401345:	89 44 24 e8          	mov    %eax,-0x18(%rsp)
  401349:	8b 44 24 e8          	mov    -0x18(%rsp),%eax
  40134d:	69 c0 b0 f3 00 00    	imul   $0xf3b0,%eax,%eax
  401353:	89 44 24 e8          	mov    %eax,-0x18(%rsp)
  401357:	8b 44 24 e4          	mov    -0x1c(%rsp),%eax
  40135b:	69 c0 f5 2a 00 00    	imul   $0x2af5,%eax,%eax
  401361:	89 44 24 e4          	mov    %eax,-0x1c(%rsp)
  401365:	8b 44 24 f4          	mov    -0xc(%rsp),%eax
  401369:	69 c0 2f 1c 00 00    	imul   $0x1c2f,%eax,%eax
  40136f:	89 44 24 f4          	mov    %eax,-0xc(%rsp)
  401373:	8b 44 24 e8          	mov    -0x18(%rsp),%eax
  401377:	69 c0 81 4e 00 00    	imul   $0x4e81,%eax,%eax
  40137d:	89 44 24 e8          	mov    %eax,-0x18(%rsp)
  401381:	8b 44 24 d0          	mov    -0x30(%rsp),%eax
  401385:	69 c0 dc f7 00 00    	imul   $0xf7dc,%eax,%eax
  40138b:	89 44 24 d0          	mov    %eax,-0x30(%rsp)
  40138f:	8b 44 24 ec          	mov    -0x14(%rsp),%eax
  401393:	69 c0 3c c3 00 00    	imul   $0xc33c,%eax,%eax
  401399:	89 44 24 ec          	mov    %eax,-0x14(%rsp)
  40139d:	8b 44 24 dc          	mov    -0x24(%rsp),%eax
  4013a1:	69 c0 68 9d 00 00    	imul   $0x9d68,%eax,%eax
  4013a7:	89 44 24 dc          	mov    %eax,-0x24(%rsp)
  4013ab:	8b 44 24 f0          	mov    -0x10(%rsp),%eax
  4013af:	69 c0 ec 00 00 00    	imul   $0xec,%eax,%eax
  4013b5:	89 44 24 f0          	mov    %eax,-0x10(%rsp)
  4013b9:	8b 44 24 e0          	mov    -0x20(%rsp),%eax
  4013bd:	69 c0 57 7b 00 00    	imul   $0x7b57,%eax,%eax
  4013c3:	89 44 24 e0          	mov    %eax,-0x20(%rsp)
  4013c7:	8b 44 24 e0          	mov    -0x20(%rsp),%eax
  4013cb:	69 c0 4b 13 00 00    	imul   $0x134b,%eax,%eax
  4013d1:	89 44 24 e0          	mov    %eax,-0x20(%rsp)
  4013d5:	8b 44 24 e4          	mov    -0x1c(%rsp),%eax
  4013d9:	69 c0 66 bd 00 00    	imul   $0xbd66,%eax,%eax
  4013df:	89 44 24 e4          	mov    %eax,-0x1c(%rsp)
  4013e3:	8b 44 24 f0          	mov    -0x10(%rsp),%eax
  4013e7:	69 c0 73 73 00 00    	imul   $0x7373,%eax,%eax
  4013ed:	89 44 24 f0          	mov    %eax,-0x10(%rsp)
  4013f1:	8b 44 24 f4          	mov    -0xc(%rsp),%eax
  4013f5:	69 c0 10 a3 00 00    	imul   $0xa310,%eax,%eax
  4013fb:	89 44 24 f4          	mov    %eax,-0xc(%rsp)
  4013ff:	8b 44 24 dc          	mov    -0x24(%rsp),%eax
  401403:	69 c0 f0 68 00 00    	imul   $0x68f0,%eax,%eax
  401409:	89 44 24 dc          	mov    %eax,-0x24(%rsp)
  40140d:	8b 44 24 ec          	mov    -0x14(%rsp),%eax
  401411:	69 c0 8e e7 00 00    	imul   $0xe78e,%eax,%eax
  401417:	89 44 24 ec          	mov    %eax,-0x14(%rsp)
  40141b:	8b 44 24 f0          	mov    -0x10(%rsp),%eax
  40141f:	69 c0 bd b0 00 00    	imul   $0xb0bd,%eax,%eax
  401425:	89 44 24 f0          	mov    %eax,-0x10(%rsp)
  401429:	8b 44 24 e8          	mov    -0x18(%rsp),%eax
  40142d:	69 c0 25 bc 00 00    	imul   $0xbc25,%eax,%eax
  401433:	89 44 24 e8          	mov    %eax,-0x18(%rsp)
  401437:	8b 44 24 e0          	mov    -0x20(%rsp),%eax
  40143b:	69 c0 24 4b 00 00    	imul   $0x4b24,%eax,%eax
  401441:	89 44 24 e0          	mov    %eax,-0x20(%rsp)
  401445:	8b 44 24 f4          	mov    -0xc(%rsp),%eax
  401449:	69 c0 a4 23 00 00    	imul   $0x23a4,%eax,%eax
  40144f:	89 44 24 f4          	mov    %eax,-0xc(%rsp)
  401453:	8b 44 24 d8          	mov    -0x28(%rsp),%eax
  401457:	69 c0 4a 05 00 00    	imul   $0x54a,%eax,%eax
  40145d:	89 44 24 d8          	mov    %eax,-0x28(%rsp)
  401461:	8b 44 24 f4          	mov    -0xc(%rsp),%eax
  401465:	69 c0 3d 5f 00 00    	imul   $0x5f3d,%eax,%eax
  40146b:	89 44 24 f4          	mov    %eax,-0xc(%rsp)
  40146f:	8b 44 24 ec          	mov    -0x14(%rsp),%eax
  401473:	69 c0 81 57 00 00    	imul   $0x5781,%eax,%eax
  401479:	89 44 24 ec          	mov    %eax,-0x14(%rsp)
  40147d:	8b 44 24 e4          	mov    -0x1c(%rsp),%eax
  401481:	69 c0 9a eb 00 00    	imul   $0xeb9a,%eax,%eax
  401487:	89 44 24 e4          	mov    %eax,-0x1c(%rsp)
  40148b:	8b 44 24 d8          	mov    -0x28(%rsp),%eax
  40148f:	69 c0 3b 3e 00 00    	imul   $0x3e3b,%eax,%eax
  401495:	89 44 24 d8          	mov    %eax,-0x28(%rsp)
  401499:	8b 44 24 e4          	mov    -0x1c(%rsp),%eax
  40149d:	69 c0 48 03 00 00    	imul   $0x348,%eax,%eax
  4014a3:	89 44 24 e4          	mov    %eax,-0x1c(%rsp)
  4014a7:	8b 44 24 f0          	mov    -0x10(%rsp),%eax
  4014ab:	69 c0 fe 50 00 00    	imul   $0x50fe,%eax,%eax
  4014b1:	89 44 24 f0          	mov    %eax,-0x10(%rsp)
  4014b5:	8b 44 24 f0          	mov    -0x10(%rsp),%eax
  4014b9:	69 c0 8e 91 00 00    	imul   $0x918e,%eax,%eax
  4014bf:	89 44 24 f0          	mov    %eax,-0x10(%rsp)
  4014c3:	8b 44 24 d8          	mov    -0x28(%rsp),%eax
  4014c7:	69 c0 10 88 00 00    	imul   $0x8810,%eax,%eax
  4014cd:	89 44 24 d8          	mov    %eax,-0x28(%rsp)
  4014d1:	8b 44 24 d0          	mov    -0x30(%rsp),%eax
  4014d5:	69 c0 77 bb 00 00    	imul   $0xbb77,%eax,%eax
  4014db:	89 44 24 d0          	mov    %eax,-0x30(%rsp)
  4014df:	8b 44 24 e4          	mov    -0x1c(%rsp),%eax
  4014e3:	69 c0 eb 1c 00 00    	imul   $0x1ceb,%eax,%eax
  4014e9:	89 44 24 e4          	mov    %eax,-0x1c(%rsp)
  4014ed:	8b 44 24 f4          	mov    -0xc(%rsp),%eax
  4014f1:	69 c0 9d 12 00 00    	imul   $0x129d,%eax,%eax
  4014f7:	89 44 24 f4          	mov    %eax,-0xc(%rsp)
  4014fb:	8b 44 24 e0          	mov    -0x20(%rsp),%eax
  4014ff:	69 c0 44 7e 00 00    	imul   $0x7e44,%eax,%eax
  401505:	89 44 24 e0          	mov    %eax,-0x20(%rsp)
  401509:	8b 44 24 d8          	mov    -0x28(%rsp),%eax
  40150d:	69 c0 5b a9 00 00    	imul   $0xa95b,%eax,%eax
  401513:	89 44 24 d8          	mov    %eax,-0x28(%rsp)
  401517:	8b 44 24 dc          	mov    -0x24(%rsp),%eax
  40151b:	69 c0 16 a7 00 00    	imul   $0xa716,%eax,%eax
  401521:	89 44 24 dc          	mov    %eax,-0x24(%rsp)
  401525:	8b 44 24 dc          	mov    -0x24(%rsp),%eax
  401529:	69 c0 0d 63 00 00    	imul   $0x630d,%eax,%eax
  40152f:	89 44 24 dc          	mov    %eax,-0x24(%rsp)
  401533:	8b 44 24 d8          	mov    -0x28(%rsp),%eax
  401537:	69 c0 7f e8 00 00    	imul   $0xe87f,%eax,%eax
  40153d:	89 44 24 d8          	mov    %eax,-0x28(%rsp)
  401541:	8b 44 24 d4          	mov    -0x2c(%rsp),%eax
  401545:	69 c0 e8 74 00 00    	imul   $0x74e8,%eax,%eax
  40154b:	89 44 24 d4          	mov    %eax,-0x2c(%rsp)
  40154f:	8b 44 24 f0          	mov    -0x10(%rsp),%eax
  401553:	69 c0 ef be 00 00    	imul   $0xbeef,%eax,%eax
  401559:	89 44 24 f0          	mov    %eax,-0x10(%rsp)
  40155d:	8b 44 24 e8          	mov    -0x18(%rsp),%eax
  401561:	69 c0 6e 98 00 00    	imul   $0x986e,%eax,%eax
  401567:	89 44 24 e8          	mov    %eax,-0x18(%rsp)
  40156b:	8b 44 24 f0          	mov    -0x10(%rsp),%eax
  40156f:	69 c0 74 c7 00 00    	imul   $0xc774,%eax,%eax
  401575:	89 44 24 f0          	mov    %eax,-0x10(%rsp)
  401579:	8b 44 24 d4          	mov    -0x2c(%rsp),%eax
  40157d:	69 c0 b1 4e 00 00    	imul   $0x4eb1,%eax,%eax
  401583:	89 44 24 d4          	mov    %eax,-0x2c(%rsp)
  401587:	8b 44 24 ec          	mov    -0x14(%rsp),%eax
  40158b:	69 c0 65 5c 00 00    	imul   $0x5c65,%eax,%eax
  401591:	89 44 24 ec          	mov    %eax,-0x14(%rsp)
  401595:	8b 44 24 e4          	mov    -0x1c(%rsp),%eax
  401599:	69 c0 e5 dc 00 00    	imul   $0xdce5,%eax,%eax
  40159f:	89 44 24 e4          	mov    %eax,-0x1c(%rsp)
  4015a3:	8b 44 24 d0          	mov    -0x30(%rsp),%eax
  4015a7:	69 c0 de 14 00 00    	imul   $0x14de,%eax,%eax
  4015ad:	89 44 24 d0          	mov    %eax,-0x30(%rsp)
  4015b1:	8b 44 24 ec          	mov    -0x14(%rsp),%eax
  4015b5:	69 c0 76 d5 00 00    	imul   $0xd576,%eax,%eax
  4015bb:	89 44 24 ec          	mov    %eax,-0x14(%rsp)
  4015bf:	8b 44 24 e4          	mov    -0x1c(%rsp),%eax
  4015c3:	69 c0 62 3b 00 00    	imul   $0x3b62,%eax,%eax
  4015c9:	89 44 24 e4          	mov    %eax,-0x1c(%rsp)
  4015cd:	8b 44 24 e0          	mov    -0x20(%rsp),%eax
  4015d1:	69 c0 72 ff 00 00    	imul   $0xff72,%eax,%eax
  4015d7:	89 44 24 e0          	mov    %eax,-0x20(%rsp)
  4015db:	8b 44 24 e0          	mov    -0x20(%rsp),%eax
  4015df:	69 c0 d6 b6 00 00    	imul   $0xb6d6,%eax,%eax
  4015e5:	89 44 24 e0          	mov    %eax,-0x20(%rsp)
  4015e9:	8b 44 24 d8          	mov    -0x28(%rsp),%eax
  4015ed:	69 c0 0e 83 00 00    	imul   $0x830e,%eax,%eax
  4015f3:	89 44 24 d8          	mov    %eax,-0x28(%rsp)
  4015f7:	8b 44 24 f4          	mov    -0xc(%rsp),%eax
  4015fb:	69 c0 cd 75 00 00    	imul   $0x75cd,%eax,%eax
  401601:	89 44 24 f4          	mov    %eax,-0xc(%rsp)
  401605:	8b 44 24 ec          	mov    -0x14(%rsp),%eax
  401609:	69 c0 4d 0a 00 00    	imul   $0xa4d,%eax,%eax
  40160f:	89 44 24 ec          	mov    %eax,-0x14(%rsp)
  401613:	8b 44 24 f4          	mov    -0xc(%rsp),%eax
  401617:	69 c0 65 a8 00 00    	imul   $0xa865,%eax,%eax
  40161d:	89 44 24 f4          	mov    %eax,-0xc(%rsp)
  401621:	8b 44 24 d8          	mov    -0x28(%rsp),%eax
  401625:	69 c0 4e 9e 00 00    	imul   $0x9e4e,%eax,%eax
  40162b:	89 44 24 d8          	mov    %eax,-0x28(%rsp)
  40162f:	8b 44 24 e0          	mov    -0x20(%rsp),%eax
  401633:	69 c0 b8 df 00 00    	imul   $0xdfb8,%eax,%eax
  401639:	89 44 24 e0          	mov    %eax,-0x20(%rsp)
  40163d:	8b 44 24 d0          	mov    -0x30(%rsp),%eax
  401641:	69 c0 7e 64 00 00    	imul   $0x647e,%eax,%eax
  401647:	89 44 24 d0          	mov    %eax,-0x30(%rsp)
  40164b:	8b 44 24 e0          	mov    -0x20(%rsp),%eax
  40164f:	69 c0 73 d2 00 00    	imul   $0xd273,%eax,%eax
  401655:	89 44 24 e0          	mov    %eax,-0x20(%rsp)
  401659:	8b 44 24 d8          	mov    -0x28(%rsp),%eax
  40165d:	69 c0 9f bf 00 00    	imul   $0xbf9f,%eax,%eax
  401663:	89 44 24 d8          	mov    %eax,-0x28(%rsp)
  401667:	8b 44 24 e0          	mov    -0x20(%rsp),%eax
  40166b:	69 c0 6f 93 00 00    	imul   $0x936f,%eax,%eax
  401671:	89 44 24 e0          	mov    %eax,-0x20(%rsp)
  401675:	8b 44 24 dc          	mov    -0x24(%rsp),%eax
  401679:	69 c0 4d 13 00 00    	imul   $0x134d,%eax,%eax
  40167f:	89 44 24 dc          	mov    %eax,-0x24(%rsp)
  401683:	8b 44 24 e4          	mov    -0x1c(%rsp),%eax
  401687:	69 c0 e1 34 00 00    	imul   $0x34e1,%eax,%eax
  40168d:	89 44 24 e4          	mov    %eax,-0x1c(%rsp)
  401691:	8b 44 24 dc          	mov    -0x24(%rsp),%eax
  401695:	69 c0 17 da 00 00    	imul   $0xda17,%eax,%eax
  40169b:	89 44 24 dc          	mov    %eax,-0x24(%rsp)
  40169f:	8b 44 24 ec          	mov    -0x14(%rsp),%eax
  4016a3:	69 c0 d7 d0 00 00    	imul   $0xd0d7,%eax,%eax
  4016a9:	89 44 24 ec          	mov    %eax,-0x14(%rsp)
  4016ad:	8b 44 24 dc          	mov    -0x24(%rsp),%eax
  4016b1:	69 c0 e9 29 00 00    	imul   $0x29e9,%eax,%eax
  4016b7:	89 44 24 dc          	mov    %eax,-0x24(%rsp)
  4016bb:	8b 44 24 e4          	mov    -0x1c(%rsp),%eax
  4016bf:	69 c0 57 82 00 00    	imul   $0x8257,%eax,%eax
  4016c5:	89 44 24 e4          	mov    %eax,-0x1c(%rsp)
  4016c9:	8b 44 24 d4          	mov    -0x2c(%rsp),%eax
  4016cd:	69 c0 99 e5 00 00    	imul   $0xe599,%eax,%eax
  4016d3:	89 44 24 d4          	mov    %eax,-0x2c(%rsp)
  4016d7:	8b 44 24 dc          	mov    -0x24(%rsp),%eax
  4016db:	69 c0 12 93 00 00    	imul   $0x9312,%eax,%eax
  4016e1:	89 44 24 dc          	mov    %eax,-0x24(%rsp)
  4016e5:	8b 44 24 ec          	mov    -0x14(%rsp),%eax
  4016e9:	69 c0 72 56 00 00    	imul   $0x5672,%eax,%eax
  4016ef:	89 44 24 ec          	mov    %eax,-0x14(%rsp)
  4016f3:	8b 44 24 f0          	mov    -0x10(%rsp),%eax
  4016f7:	69 c0 1c 6f 00 00    	imul   $0x6f1c,%eax,%eax
  4016fd:	89 44 24 f0          	mov    %eax,-0x10(%rsp)
  401701:	8b 44 24 e0          	mov    -0x20(%rsp),%eax
  401705:	69 c0 cb a2 00 00    	imul   $0xa2cb,%eax,%eax
  40170b:	89 44 24 e0          	mov    %eax,-0x20(%rsp)
  40170f:	8b 44 24 d4          	mov    -0x2c(%rsp),%eax
  401713:	69 c0 7c 2b 00 00    	imul   $0x2b7c,%eax,%eax
  401719:	89 44 24 d4          	mov    %eax,-0x2c(%rsp)
  40171d:	8b 44 24 f4          	mov    -0xc(%rsp),%eax
  401721:	69 c0 01 f6 00 00    	imul   $0xf601,%eax,%eax
  401727:	89 44 24 f4          	mov    %eax,-0xc(%rsp)
  40172b:	8b 44 24 d0          	mov    -0x30(%rsp),%eax
  40172f:	69 c0 79 ba 00 00    	imul   $0xba79,%eax,%eax
  401735:	89 44 24 d0          	mov    %eax,-0x30(%rsp)
  401739:	8b 44 24 d4          	mov    -0x2c(%rsp),%eax
  40173d:	69 c0 c7 2c 00 00    	imul   $0x2cc7,%eax,%eax
  401743:	89 44 24 d4          	mov    %eax,-0x2c(%rsp)
  401747:	8b 44 24 f4          	mov    -0xc(%rsp),%eax
  40174b:	69 c0 25 52 00 00    	imul   $0x5225,%eax,%eax
  401751:	89 44 24 f4          	mov    %eax,-0xc(%rsp)
  401755:	8b 44 24 d8          	mov    -0x28(%rsp),%eax
  401759:	69 c0 36 f6 00 00    	imul   $0xf636,%eax,%eax
  40175f:	89 44 24 d8          	mov    %eax,-0x28(%rsp)
  401763:	8b 44 24 ec          	mov    -0x14(%rsp),%eax
  401767:	69 c0 d8 28 00 00    	imul   $0x28d8,%eax,%eax
  40176d:	89 44 24 ec          	mov    %eax,-0x14(%rsp)
  401771:	ba 00 00 00 00       	mov    $0x0,%edx
  401776:	b8 00 00 00 00       	mov    $0x0,%eax
  40177b:	eb 0b                	jmp    401788 <scramble+0x520>
  40177d:	89 d1                	mov    %edx,%ecx
  40177f:	8b 4c 8c d0          	mov    -0x30(%rsp,%rcx,4),%ecx
  401783:	01 c8                	add    %ecx,%eax
  401785:	83 c2 01             	add    $0x1,%edx
  401788:	83 fa 09             	cmp    $0x9,%edx
  40178b:	76 f0                	jbe    40177d <scramble+0x515>
  40178d:	f3 c3                	repz retq 

000000000040178f <getbuf>:
  40178f:	48 83 ec 28          	sub    $0x28,%rsp
  401793:	48 89 e7             	mov    %rsp,%rdi
  401796:	e8 4f 03 00 00       	callq  401aea <Gets>
  40179b:	b8 01 00 00 00       	mov    $0x1,%eax
  4017a0:	48 83 c4 28          	add    $0x28,%rsp
  4017a4:	c3                   	retq   

00000000004017a5 <touch1>:
  4017a5:	48 83 ec 08          	sub    $0x8,%rsp
  4017a9:	c7 05 49 3d 20 00 01 	movl   $0x1,0x203d49(%rip)        # 6054fc <vlevel>
  4017b0:	00 00 00 
  4017b3:	bf f1 2f 40 00       	mov    $0x402ff1,%edi
  4017b8:	e8 93 f4 ff ff       	callq  400c50 <puts@plt>
  4017bd:	bf 01 00 00 00       	mov    $0x1,%edi
  4017c2:	e8 12 05 00 00       	callq  401cd9 <validate>
  4017c7:	bf 00 00 00 00       	mov    $0x0,%edi
  4017cc:	e8 0f f6 ff ff       	callq  400de0 <exit@plt>

00000000004017d1 <touch2>:
  4017d1:	48 83 ec 08          	sub    $0x8,%rsp
  4017d5:	89 fe                	mov    %edi,%esi
  4017d7:	c7 05 1b 3d 20 00 02 	movl   $0x2,0x203d1b(%rip)        # 6054fc <vlevel>
  4017de:	00 00 00 
  4017e1:	3b 3d 1d 3d 20 00    	cmp    0x203d1d(%rip),%edi        # 605504 <cookie>
  4017e7:	75 1b                	jne    401804 <touch2+0x33>
  4017e9:	bf 18 30 40 00       	mov    $0x403018,%edi
  4017ee:	b8 00 00 00 00       	mov    $0x0,%eax
  4017f3:	e8 88 f4 ff ff       	callq  400c80 <printf@plt>
  4017f8:	bf 02 00 00 00       	mov    $0x2,%edi
  4017fd:	e8 d7 04 00 00       	callq  401cd9 <validate>
  401802:	eb 19                	jmp    40181d <touch2+0x4c>
  401804:	bf 40 30 40 00       	mov    $0x403040,%edi
  401809:	b8 00 00 00 00       	mov    $0x0,%eax
  40180e:	e8 6d f4 ff ff       	callq  400c80 <printf@plt>
  401813:	bf 02 00 00 00       	mov    $0x2,%edi
  401818:	e8 6e 05 00 00       	callq  401d8b <fail>
  40181d:	bf 00 00 00 00       	mov    $0x0,%edi
  401822:	e8 b9 f5 ff ff       	callq  400de0 <exit@plt>

0000000000401827 <hexmatch>:
  401827:	41 54                	push   %r12
  401829:	55                   	push   %rbp
  40182a:	53                   	push   %rbx
  40182b:	48 83 ec 70          	sub    $0x70,%rsp
  40182f:	41 89 fc             	mov    %edi,%r12d
  401832:	48 89 f5             	mov    %rsi,%rbp
  401835:	e8 16 f5 ff ff       	callq  400d50 <random@plt>
  40183a:	48 89 c1             	mov    %rax,%rcx
  40183d:	48 ba 0b d7 a3 70 3d 	movabs $0xa3d70a3d70a3d70b,%rdx
  401844:	0a d7 a3 
  401847:	48 f7 ea             	imul   %rdx
  40184a:	48 8d 04 0a          	lea    (%rdx,%rcx,1),%rax
  40184e:	48 c1 f8 06          	sar    $0x6,%rax
  401852:	48 89 ce             	mov    %rcx,%rsi
  401855:	48 c1 fe 3f          	sar    $0x3f,%rsi
  401859:	48 29 f0             	sub    %rsi,%rax
  40185c:	48 8d 04 80          	lea    (%rax,%rax,4),%rax
  401860:	48 8d 04 80          	lea    (%rax,%rax,4),%rax
  401864:	48 c1 e0 02          	shl    $0x2,%rax
  401868:	48 29 c1             	sub    %rax,%rcx
  40186b:	48 8d 1c 0c          	lea    (%rsp,%rcx,1),%rbx
  40186f:	44 89 e2             	mov    %r12d,%edx
  401872:	be 0e 30 40 00       	mov    $0x40300e,%esi
  401877:	48 89 df             	mov    %rbx,%rdi
  40187a:	b8 00 00 00 00       	mov    $0x0,%eax
  40187f:	e8 4c f5 ff ff       	callq  400dd0 <sprintf@plt>
  401884:	ba 09 00 00 00       	mov    $0x9,%edx
  401889:	48 89 de             	mov    %rbx,%rsi
  40188c:	48 89 ef             	mov    %rbp,%rdi
  40188f:	e8 9c f3 ff ff       	callq  400c30 <strncmp@plt>
  401894:	85 c0                	test   %eax,%eax
  401896:	0f 94 c0             	sete   %al
  401899:	0f b6 c0             	movzbl %al,%eax
  40189c:	48 83 c4 70          	add    $0x70,%rsp
  4018a0:	5b                   	pop    %rbx
  4018a1:	5d                   	pop    %rbp
  4018a2:	41 5c                	pop    %r12
  4018a4:	c3                   	retq   

00000000004018a5 <touch3>:
  4018a5:	53                   	push   %rbx
  4018a6:	48 89 fb             	mov    %rdi,%rbx
  4018a9:	c7 05 49 3c 20 00 03 	movl   $0x3,0x203c49(%rip)        # 6054fc <vlevel>
  4018b0:	00 00 00 
  4018b3:	48 89 fe             	mov    %rdi,%rsi
  4018b6:	8b 3d 48 3c 20 00    	mov    0x203c48(%rip),%edi        # 605504 <cookie>
  4018bc:	e8 66 ff ff ff       	callq  401827 <hexmatch>
  4018c1:	85 c0                	test   %eax,%eax
  4018c3:	74 1e                	je     4018e3 <touch3+0x3e>
  4018c5:	48 89 de             	mov    %rbx,%rsi
  4018c8:	bf 68 30 40 00       	mov    $0x403068,%edi
  4018cd:	b8 00 00 00 00       	mov    $0x0,%eax
  4018d2:	e8 a9 f3 ff ff       	callq  400c80 <printf@plt>
  4018d7:	bf 03 00 00 00       	mov    $0x3,%edi
  4018dc:	e8 f8 03 00 00       	callq  401cd9 <validate>
  4018e1:	eb 1c                	jmp    4018ff <touch3+0x5a>
  4018e3:	48 89 de             	mov    %rbx,%rsi
  4018e6:	bf 90 30 40 00       	mov    $0x403090,%edi
  4018eb:	b8 00 00 00 00       	mov    $0x0,%eax
  4018f0:	e8 8b f3 ff ff       	callq  400c80 <printf@plt>
  4018f5:	bf 03 00 00 00       	mov    $0x3,%edi
  4018fa:	e8 8c 04 00 00       	callq  401d8b <fail>
  4018ff:	bf 00 00 00 00       	mov    $0x0,%edi
  401904:	e8 d7 f4 ff ff       	callq  400de0 <exit@plt>

0000000000401909 <test>:
  401909:	48 83 ec 08          	sub    $0x8,%rsp
  40190d:	b8 00 00 00 00       	mov    $0x0,%eax
  401912:	e8 78 fe ff ff       	callq  40178f <getbuf>
  401917:	89 c6                	mov    %eax,%esi
  401919:	bf b8 30 40 00       	mov    $0x4030b8,%edi
  40191e:	b8 00 00 00 00       	mov    $0x0,%eax
  401923:	e8 58 f3 ff ff       	callq  400c80 <printf@plt>
  401928:	48 83 c4 08          	add    $0x8,%rsp
  40192c:	c3                   	retq   

000000000040192d <start_farm>:
  40192d:	b8 01 00 00 00       	mov    $0x1,%eax
  401932:	c3                   	retq   

0000000000401933 <getval_345>:
  401933:	b8 d8 90 90 c3       	mov    $0xc39090d8,%eax
  401938:	c3                   	retq   

0000000000401939 <addval_200>:
  401939:	8d 87 48 89 c7 94    	lea    -0x6b3876b8(%rdi),%eax
  40193f:	c3                   	retq   

0000000000401940 <getval_111>:
  401940:	b8 58 90 c2 fa       	mov    $0xfac29058,%eax
  401945:	c3                   	retq   

0000000000401946 <addval_190>:
  401946:	8d 87 48 89 c7 c1    	lea    -0x3e3876b8(%rdi),%eax
  40194c:	c3                   	retq   

000000000040194d <getval_163>:
  40194d:	b8 86 5a 58 90       	mov    $0x90585a86,%eax
  401952:	c3                   	retq   

0000000000401953 <addval_121>:
  401953:	8d 87 48 89 c7 90    	lea    -0x6f3876b8(%rdi),%eax
  401959:	c3                   	retq   

000000000040195a <getval_270>:
  40195a:	b8 3d 48 89 c7       	mov    $0xc789483d,%eax
  40195f:	c3                   	retq   

0000000000401960 <getval_210>:
  401960:	b8 e2 58 90 90       	mov    $0x909058e2,%eax
  401965:	c3                   	retq   

0000000000401966 <mid_farm>:
  401966:	b8 01 00 00 00       	mov    $0x1,%eax
  40196b:	c3                   	retq   

000000000040196c <add_xy>:
  40196c:	48 8d 04 37          	lea    (%rdi,%rsi,1),%rax
  401970:	c3                   	retq   

0000000000401971 <addval_249>:
  401971:	8d 87 89 d6 28 db    	lea    -0x24d72977(%rdi),%eax
  401977:	c3                   	retq   

0000000000401978 <setval_256>:
  401978:	c7 07 99 ca c3 f0    	movl   $0xf0c3ca99,(%rdi)
  40197e:	c3                   	retq   

000000000040197f <setval_194>:
  40197f:	c7 07 89 ca 90 90    	movl   $0x9090ca89,(%rdi)
  401985:	c3                   	retq   

0000000000401986 <getval_142>:
  401986:	b8 c6 4c 89 e0       	mov    $0xe0894cc6,%eax
  40198b:	c3                   	retq   

000000000040198c <addval_268>:
  40198c:	8d 87 ee 89 ca 90    	lea    -0x6f357612(%rdi),%eax
  401992:	c3                   	retq   

0000000000401993 <getval_340>:
  401993:	b8 89 ca 90 c2       	mov    $0xc290ca89,%eax
  401998:	c3                   	retq   

0000000000401999 <addval_379>:
  401999:	8d 87 48 8d e0 c3    	lea    -0x3c1f72b8(%rdi),%eax
  40199f:	c3                   	retq   

00000000004019a0 <getval_456>:
  4019a0:	b8 8d c1 20 db       	mov    $0xdb20c18d,%eax
  4019a5:	c3                   	retq   

00000000004019a6 <addval_269>:
  4019a6:	8d 87 89 c1 c7 c1    	lea    -0x3e383e77(%rdi),%eax
  4019ac:	c3                   	retq   

00000000004019ad <addval_302>:
  4019ad:	8d 87 c9 d6 08 c9    	lea    -0x36f72937(%rdi),%eax
  4019b3:	c3                   	retq   

00000000004019b4 <getval_446>:
  4019b4:	b8 89 ca 91 c3       	mov    $0xc391ca89,%eax
  4019b9:	c3                   	retq   

00000000004019ba <addval_113>:
  4019ba:	8d 87 48 89 e0 94    	lea    -0x6b1f76b8(%rdi),%eax
  4019c0:	c3                   	retq   

00000000004019c1 <getval_326>:
  4019c1:	b8 48 89 e0 90       	mov    $0x90e08948,%eax
  4019c6:	c3                   	retq   

00000000004019c7 <addval_319>:
  4019c7:	8d 87 88 ca 84 c9    	lea    -0x367b3578(%rdi),%eax
  4019cd:	c3                   	retq   

00000000004019ce <getval_426>:
  4019ce:	b8 89 d6 18 db       	mov    $0xdb18d689,%eax
  4019d3:	c3                   	retq   

00000000004019d4 <getval_304>:
  4019d4:	b8 89 c1 90 90       	mov    $0x9090c189,%eax
  4019d9:	c3                   	retq   

00000000004019da <getval_103>:
  4019da:	b8 b6 89 d6 c3       	mov    $0xc3d689b6,%eax
  4019df:	c3                   	retq   

00000000004019e0 <getval_282>:
  4019e0:	b8 89 d6 38 d2       	mov    $0xd238d689,%eax
  4019e5:	c3                   	retq   

00000000004019e6 <setval_212>:
  4019e6:	c7 07 89 d6 60 db    	movl   $0xdb60d689,(%rdi)
  4019ec:	c3                   	retq   

00000000004019ed <getval_316>:
  4019ed:	b8 8d c1 20 c0       	mov    $0xc020c18d,%eax
  4019f2:	c3                   	retq   

00000000004019f3 <setval_156>:
  4019f3:	c7 07 48 89 e0 94    	movl   $0x94e08948,(%rdi)
  4019f9:	c3                   	retq   

00000000004019fa <addval_422>:
  4019fa:	8d 87 89 d6 48 db    	lea    -0x24b72977(%rdi),%eax
  401a00:	c3                   	retq   

0000000000401a01 <addval_362>:
  401a01:	8d 87 a9 c1 38 c9    	lea    -0x36c73e57(%rdi),%eax
  401a07:	c3                   	retq   

0000000000401a08 <setval_312>:
  401a08:	c7 07 48 89 e0 c7    	movl   $0xc7e08948,(%rdi)
  401a0e:	c3                   	retq   

0000000000401a0f <setval_452>:
  401a0f:	c7 07 51 89 d6 c7    	movl   $0xc7d68951,(%rdi)
  401a15:	c3                   	retq   

0000000000401a16 <setval_118>:
  401a16:	c7 07 89 ca 28 d2    	movl   $0xd228ca89,(%rdi)
  401a1c:	c3                   	retq   

0000000000401a1d <getval_420>:
  401a1d:	b8 8e 89 ca 94       	mov    $0x94ca898e,%eax
  401a22:	c3                   	retq   

0000000000401a23 <getval_334>:
  401a23:	b8 89 c1 c4 c9       	mov    $0xc9c4c189,%eax
  401a28:	c3                   	retq   

0000000000401a29 <setval_107>:
  401a29:	c7 07 48 89 e0 c3    	movl   $0xc3e08948,(%rdi)
  401a2f:	c3                   	retq   

0000000000401a30 <getval_309>:
  401a30:	b8 89 c1 84 db       	mov    $0xdb84c189,%eax
  401a35:	c3                   	retq   

0000000000401a36 <addval_145>:
  401a36:	8d 87 99 c1 38 d2    	lea    -0x2dc73e67(%rdi),%eax
  401a3c:	c3                   	retq   

0000000000401a3d <getval_263>:
  401a3d:	b8 d5 48 09 e0       	mov    $0xe00948d5,%eax
  401a42:	c3                   	retq   

0000000000401a43 <end_farm>:
  401a43:	b8 01 00 00 00       	mov    $0x1,%eax
  401a48:	c3                   	retq   
  401a49:	0f 1f 80 00 00 00 00 	nopl   0x0(%rax)

0000000000401a50 <save_char>:
  401a50:	8b 05 ce 46 20 00    	mov    0x2046ce(%rip),%eax        # 606124 <gets_cnt>
  401a56:	3d ff 03 00 00       	cmp    $0x3ff,%eax
  401a5b:	7f 49                	jg     401aa6 <save_char+0x56>
  401a5d:	8d 14 40             	lea    (%rax,%rax,2),%edx
  401a60:	89 f9                	mov    %edi,%ecx
  401a62:	c0 e9 04             	shr    $0x4,%cl
  401a65:	83 e1 0f             	and    $0xf,%ecx
  401a68:	0f b6 b1 e0 33 40 00 	movzbl 0x4033e0(%rcx),%esi
  401a6f:	48 63 ca             	movslq %edx,%rcx
  401a72:	40 88 b1 20 55 60 00 	mov    %sil,0x605520(%rcx)
  401a79:	8d 4a 01             	lea    0x1(%rdx),%ecx
  401a7c:	83 e7 0f             	and    $0xf,%edi
  401a7f:	0f b6 b7 e0 33 40 00 	movzbl 0x4033e0(%rdi),%esi
  401a86:	48 63 c9             	movslq %ecx,%rcx
  401a89:	40 88 b1 20 55 60 00 	mov    %sil,0x605520(%rcx)
  401a90:	83 c2 02             	add    $0x2,%edx
  401a93:	48 63 d2             	movslq %edx,%rdx
  401a96:	c6 82 20 55 60 00 20 	movb   $0x20,0x605520(%rdx)
  401a9d:	83 c0 01             	add    $0x1,%eax
  401aa0:	89 05 7e 46 20 00    	mov    %eax,0x20467e(%rip)        # 606124 <gets_cnt>
  401aa6:	f3 c3                	repz retq 

0000000000401aa8 <save_term>:
  401aa8:	8b 05 76 46 20 00    	mov    0x204676(%rip),%eax        # 606124 <gets_cnt>
  401aae:	8d 04 40             	lea    (%rax,%rax,2),%eax
  401ab1:	48 98                	cltq   
  401ab3:	c6 80 20 55 60 00 00 	movb   $0x0,0x605520(%rax)
  401aba:	c3                   	retq   

0000000000401abb <check_fail>:
  401abb:	48 83 ec 08          	sub    $0x8,%rsp
  401abf:	0f be 35 62 46 20 00 	movsbl 0x204662(%rip),%esi        # 606128 <target_prefix>
  401ac6:	b9 20 55 60 00       	mov    $0x605520,%ecx
  401acb:	8b 15 27 3a 20 00    	mov    0x203a27(%rip),%edx        # 6054f8 <check_level>
  401ad1:	bf db 30 40 00       	mov    $0x4030db,%edi
  401ad6:	b8 00 00 00 00       	mov    $0x0,%eax
  401adb:	e8 a0 f1 ff ff       	callq  400c80 <printf@plt>
  401ae0:	bf 01 00 00 00       	mov    $0x1,%edi
  401ae5:	e8 f6 f2 ff ff       	callq  400de0 <exit@plt>

0000000000401aea <Gets>:
  401aea:	41 54                	push   %r12
  401aec:	55                   	push   %rbp
  401aed:	53                   	push   %rbx
  401aee:	49 89 fc             	mov    %rdi,%r12
  401af1:	c7 05 29 46 20 00 00 	movl   $0x0,0x204629(%rip)        # 606124 <gets_cnt>
  401af8:	00 00 00 
  401afb:	48 89 fb             	mov    %rdi,%rbx
  401afe:	eb 11                	jmp    401b11 <Gets+0x27>
  401b00:	48 8d 6b 01          	lea    0x1(%rbx),%rbp
  401b04:	88 03                	mov    %al,(%rbx)
  401b06:	0f b6 f8             	movzbl %al,%edi
  401b09:	e8 42 ff ff ff       	callq  401a50 <save_char>
  401b0e:	48 89 eb             	mov    %rbp,%rbx
  401b11:	48 8b 3d d8 39 20 00 	mov    0x2039d8(%rip),%rdi        # 6054f0 <infile>
  401b18:	e8 43 f2 ff ff       	callq  400d60 <_IO_getc@plt>
  401b1d:	83 f8 ff             	cmp    $0xffffffff,%eax
  401b20:	74 05                	je     401b27 <Gets+0x3d>
  401b22:	83 f8 0a             	cmp    $0xa,%eax
  401b25:	75 d9                	jne    401b00 <Gets+0x16>
  401b27:	c6 03 00             	movb   $0x0,(%rbx)
  401b2a:	b8 00 00 00 00       	mov    $0x0,%eax
  401b2f:	e8 74 ff ff ff       	callq  401aa8 <save_term>
  401b34:	4c 89 e0             	mov    %r12,%rax
  401b37:	5b                   	pop    %rbx
  401b38:	5d                   	pop    %rbp
  401b39:	41 5c                	pop    %r12
  401b3b:	c3                   	retq   

0000000000401b3c <notify_server>:
  401b3c:	83 3d c5 39 20 00 00 	cmpl   $0x0,0x2039c5(%rip)        # 605508 <is_checker>
  401b43:	0f 85 8e 01 00 00    	jne    401cd7 <notify_server+0x19b>
  401b49:	53                   	push   %rbx
  401b4a:	48 81 ec 10 40 00 00 	sub    $0x4010,%rsp
  401b51:	89 fb                	mov    %edi,%ebx
  401b53:	8b 05 cb 45 20 00    	mov    0x2045cb(%rip),%eax        # 606124 <gets_cnt>
  401b59:	83 c0 64             	add    $0x64,%eax
  401b5c:	3d 00 20 00 00       	cmp    $0x2000,%eax
  401b61:	7e 19                	jle    401b7c <notify_server+0x40>
  401b63:	bf 10 32 40 00       	mov    $0x403210,%edi
  401b68:	b8 00 00 00 00       	mov    $0x0,%eax
  401b6d:	e8 0e f1 ff ff       	callq  400c80 <printf@plt>
  401b72:	bf 01 00 00 00       	mov    $0x1,%edi
  401b77:	e8 64 f2 ff ff       	callq  400de0 <exit@plt>
  401b7c:	44 0f be 0d a4 45 20 	movsbl 0x2045a4(%rip),%r9d        # 606128 <target_prefix>
  401b83:	00 
  401b84:	83 3d 1d 39 20 00 00 	cmpl   $0x0,0x20391d(%rip)        # 6054a8 <notify>
  401b8b:	74 09                	je     401b96 <notify_server+0x5a>
  401b8d:	44 8b 05 6c 39 20 00 	mov    0x20396c(%rip),%r8d        # 605500 <authkey>
  401b94:	eb 06                	jmp    401b9c <notify_server+0x60>
  401b96:	41 b8 ff ff ff ff    	mov    $0xffffffff,%r8d
  401b9c:	85 db                	test   %ebx,%ebx
  401b9e:	74 07                	je     401ba7 <notify_server+0x6b>
  401ba0:	b9 f1 30 40 00       	mov    $0x4030f1,%ecx
  401ba5:	eb 05                	jmp    401bac <notify_server+0x70>
  401ba7:	b9 f6 30 40 00       	mov    $0x4030f6,%ecx
  401bac:	48 c7 44 24 08 20 55 	movq   $0x605520,0x8(%rsp)
  401bb3:	60 00 
  401bb5:	89 34 24             	mov    %esi,(%rsp)
  401bb8:	8b 15 aa 35 20 00    	mov    0x2035aa(%rip),%edx        # 605168 <target_id>
  401bbe:	be fb 30 40 00       	mov    $0x4030fb,%esi
  401bc3:	48 8d bc 24 10 20 00 	lea    0x2010(%rsp),%rdi
  401bca:	00 
  401bcb:	b8 00 00 00 00       	mov    $0x0,%eax
  401bd0:	e8 fb f1 ff ff       	callq  400dd0 <sprintf@plt>
  401bd5:	83 3d cc 38 20 00 00 	cmpl   $0x0,0x2038cc(%rip)        # 6054a8 <notify>
  401bdc:	74 78                	je     401c56 <notify_server+0x11a>
  401bde:	85 db                	test   %ebx,%ebx
  401be0:	74 68                	je     401c4a <notify_server+0x10e>
  401be2:	4c 8d 4c 24 10       	lea    0x10(%rsp),%r9
  401be7:	41 b8 00 00 00 00    	mov    $0x0,%r8d
  401bed:	48 8d 8c 24 10 20 00 	lea    0x2010(%rsp),%rcx
  401bf4:	00 
  401bf5:	48 8b 15 74 35 20 00 	mov    0x203574(%rip),%rdx        # 605170 <lab>
  401bfc:	48 8b 35 75 35 20 00 	mov    0x203575(%rip),%rsi        # 605178 <course>
  401c03:	48 8b 3d 56 35 20 00 	mov    0x203556(%rip),%rdi        # 605160 <user_id>
  401c0a:	e8 83 0f 00 00       	callq  402b92 <driver_post>
  401c0f:	85 c0                	test   %eax,%eax
  401c11:	79 1e                	jns    401c31 <notify_server+0xf5>
  401c13:	48 8d 74 24 10       	lea    0x10(%rsp),%rsi
  401c18:	bf 17 31 40 00       	mov    $0x403117,%edi
  401c1d:	b8 00 00 00 00       	mov    $0x0,%eax
  401c22:	e8 59 f0 ff ff       	callq  400c80 <printf@plt>
  401c27:	bf 01 00 00 00       	mov    $0x1,%edi
  401c2c:	e8 af f1 ff ff       	callq  400de0 <exit@plt>
  401c31:	bf 40 32 40 00       	mov    $0x403240,%edi
  401c36:	e8 15 f0 ff ff       	callq  400c50 <puts@plt>
  401c3b:	bf 23 31 40 00       	mov    $0x403123,%edi
  401c40:	e8 0b f0 ff ff       	callq  400c50 <puts@plt>
  401c45:	e9 85 00 00 00       	jmpq   401ccf <notify_server+0x193>
  401c4a:	bf 2d 31 40 00       	mov    $0x40312d,%edi
  401c4f:	e8 fc ef ff ff       	callq  400c50 <puts@plt>
  401c54:	eb 79                	jmp    401ccf <notify_server+0x193>
  401c56:	85 db                	test   %ebx,%ebx
  401c58:	74 08                	je     401c62 <notify_server+0x126>
  401c5a:	be f1 30 40 00       	mov    $0x4030f1,%esi
  401c5f:	90                   	nop
  401c60:	eb 05                	jmp    401c67 <notify_server+0x12b>
  401c62:	be f6 30 40 00       	mov    $0x4030f6,%esi
  401c67:	bf 78 32 40 00       	mov    $0x403278,%edi
  401c6c:	b8 00 00 00 00       	mov    $0x0,%eax
  401c71:	e8 0a f0 ff ff       	callq  400c80 <printf@plt>
  401c76:	48 8b 35 e3 34 20 00 	mov    0x2034e3(%rip),%rsi        # 605160 <user_id>
  401c7d:	bf 34 31 40 00       	mov    $0x403134,%edi
  401c82:	b8 00 00 00 00       	mov    $0x0,%eax
  401c87:	e8 f4 ef ff ff       	callq  400c80 <printf@plt>
  401c8c:	48 8b 35 e5 34 20 00 	mov    0x2034e5(%rip),%rsi        # 605178 <course>
  401c93:	bf 41 31 40 00       	mov    $0x403141,%edi
  401c98:	b8 00 00 00 00       	mov    $0x0,%eax
  401c9d:	e8 de ef ff ff       	callq  400c80 <printf@plt>
  401ca2:	48 8b 35 c7 34 20 00 	mov    0x2034c7(%rip),%rsi        # 605170 <lab>
  401ca9:	bf 4d 31 40 00       	mov    $0x40314d,%edi
  401cae:	b8 00 00 00 00       	mov    $0x0,%eax
  401cb3:	e8 c8 ef ff ff       	callq  400c80 <printf@plt>
  401cb8:	48 8d b4 24 10 20 00 	lea    0x2010(%rsp),%rsi
  401cbf:	00 
  401cc0:	bf 56 31 40 00       	mov    $0x403156,%edi
  401cc5:	b8 00 00 00 00       	mov    $0x0,%eax
  401cca:	e8 b1 ef ff ff       	callq  400c80 <printf@plt>
  401ccf:	48 81 c4 10 40 00 00 	add    $0x4010,%rsp
  401cd6:	5b                   	pop    %rbx
  401cd7:	f3 c3                	repz retq 

0000000000401cd9 <validate>:
  401cd9:	53                   	push   %rbx
  401cda:	89 fb                	mov    %edi,%ebx
  401cdc:	83 3d 25 38 20 00 00 	cmpl   $0x0,0x203825(%rip)        # 605508 <is_checker>
  401ce3:	74 60                	je     401d45 <validate+0x6c>
  401ce5:	39 3d 11 38 20 00    	cmp    %edi,0x203811(%rip)        # 6054fc <vlevel>
  401ceb:	74 14                	je     401d01 <validate+0x28>
  401ced:	bf 62 31 40 00       	mov    $0x403162,%edi
  401cf2:	e8 59 ef ff ff       	callq  400c50 <puts@plt>
  401cf7:	b8 00 00 00 00       	mov    $0x0,%eax
  401cfc:	e8 ba fd ff ff       	callq  401abb <check_fail>
  401d01:	8b 35 f1 37 20 00    	mov    0x2037f1(%rip),%esi        # 6054f8 <check_level>
  401d07:	39 fe                	cmp    %edi,%esi
  401d09:	74 1b                	je     401d26 <validate+0x4d>
  401d0b:	89 fa                	mov    %edi,%edx
  401d0d:	bf a0 32 40 00       	mov    $0x4032a0,%edi
  401d12:	b8 00 00 00 00       	mov    $0x0,%eax
  401d17:	e8 64 ef ff ff       	callq  400c80 <printf@plt>
  401d1c:	b8 00 00 00 00       	mov    $0x0,%eax
  401d21:	e8 95 fd ff ff       	callq  401abb <check_fail>
  401d26:	0f be 35 fb 43 20 00 	movsbl 0x2043fb(%rip),%esi        # 606128 <target_prefix>
  401d2d:	b9 20 55 60 00       	mov    $0x605520,%ecx
  401d32:	89 fa                	mov    %edi,%edx
  401d34:	bf 80 31 40 00       	mov    $0x403180,%edi
  401d39:	b8 00 00 00 00       	mov    $0x0,%eax
  401d3e:	e8 3d ef ff ff       	callq  400c80 <printf@plt>
  401d43:	eb 44                	jmp    401d89 <validate+0xb0>
  401d45:	39 3d b1 37 20 00    	cmp    %edi,0x2037b1(%rip)        # 6054fc <vlevel>
  401d4b:	74 18                	je     401d65 <validate+0x8c>
  401d4d:	bf 62 31 40 00       	mov    $0x403162,%edi
  401d52:	e8 f9 ee ff ff       	callq  400c50 <puts@plt>
  401d57:	89 de                	mov    %ebx,%esi
  401d59:	bf 00 00 00 00       	mov    $0x0,%edi
  401d5e:	e8 d9 fd ff ff       	callq  401b3c <notify_server>
  401d63:	eb 24                	jmp    401d89 <validate+0xb0>
  401d65:	0f be 15 bc 43 20 00 	movsbl 0x2043bc(%rip),%edx        # 606128 <target_prefix>
  401d6c:	89 fe                	mov    %edi,%esi
  401d6e:	bf c8 32 40 00       	mov    $0x4032c8,%edi
  401d73:	b8 00 00 00 00       	mov    $0x0,%eax
  401d78:	e8 03 ef ff ff       	callq  400c80 <printf@plt>
  401d7d:	89 de                	mov    %ebx,%esi
  401d7f:	bf 01 00 00 00       	mov    $0x1,%edi
  401d84:	e8 b3 fd ff ff       	callq  401b3c <notify_server>
  401d89:	5b                   	pop    %rbx
  401d8a:	c3                   	retq   

0000000000401d8b <fail>:
  401d8b:	48 83 ec 08          	sub    $0x8,%rsp
  401d8f:	83 3d 72 37 20 00 00 	cmpl   $0x0,0x203772(%rip)        # 605508 <is_checker>
  401d96:	74 0a                	je     401da2 <fail+0x17>
  401d98:	b8 00 00 00 00       	mov    $0x0,%eax
  401d9d:	e8 19 fd ff ff       	callq  401abb <check_fail>
  401da2:	89 fe                	mov    %edi,%esi
  401da4:	bf 00 00 00 00       	mov    $0x0,%edi
  401da9:	e8 8e fd ff ff       	callq  401b3c <notify_server>
  401dae:	48 83 c4 08          	add    $0x8,%rsp
  401db2:	c3                   	retq   

0000000000401db3 <bushandler>:
  401db3:	48 83 ec 08          	sub    $0x8,%rsp
  401db7:	83 3d 4a 37 20 00 00 	cmpl   $0x0,0x20374a(%rip)        # 605508 <is_checker>
  401dbe:	74 14                	je     401dd4 <bushandler+0x21>
  401dc0:	bf 95 31 40 00       	mov    $0x403195,%edi
  401dc5:	e8 86 ee ff ff       	callq  400c50 <puts@plt>
  401dca:	b8 00 00 00 00       	mov    $0x0,%eax
  401dcf:	e8 e7 fc ff ff       	callq  401abb <check_fail>
  401dd4:	bf 00 33 40 00       	mov    $0x403300,%edi
  401dd9:	e8 72 ee ff ff       	callq  400c50 <puts@plt>
  401dde:	bf 9f 31 40 00       	mov    $0x40319f,%edi
  401de3:	e8 68 ee ff ff       	callq  400c50 <puts@plt>
  401de8:	be 00 00 00 00       	mov    $0x0,%esi
  401ded:	bf 00 00 00 00       	mov    $0x0,%edi
  401df2:	e8 45 fd ff ff       	callq  401b3c <notify_server>
  401df7:	bf 01 00 00 00       	mov    $0x1,%edi
  401dfc:	e8 df ef ff ff       	callq  400de0 <exit@plt>

0000000000401e01 <seghandler>:
  401e01:	48 83 ec 08          	sub    $0x8,%rsp
  401e05:	83 3d fc 36 20 00 00 	cmpl   $0x0,0x2036fc(%rip)        # 605508 <is_checker>
  401e0c:	74 14                	je     401e22 <seghandler+0x21>
  401e0e:	bf b5 31 40 00       	mov    $0x4031b5,%edi
  401e13:	e8 38 ee ff ff       	callq  400c50 <puts@plt>
  401e18:	b8 00 00 00 00       	mov    $0x0,%eax
  401e1d:	e8 99 fc ff ff       	callq  401abb <check_fail>
  401e22:	bf 20 33 40 00       	mov    $0x403320,%edi
  401e27:	e8 24 ee ff ff       	callq  400c50 <puts@plt>
  401e2c:	bf 9f 31 40 00       	mov    $0x40319f,%edi
  401e31:	e8 1a ee ff ff       	callq  400c50 <puts@plt>
  401e36:	be 00 00 00 00       	mov    $0x0,%esi
  401e3b:	bf 00 00 00 00       	mov    $0x0,%edi
  401e40:	e8 f7 fc ff ff       	callq  401b3c <notify_server>
  401e45:	bf 01 00 00 00       	mov    $0x1,%edi
  401e4a:	e8 91 ef ff ff       	callq  400de0 <exit@plt>

0000000000401e4f <illegalhandler>:
  401e4f:	48 83 ec 08          	sub    $0x8,%rsp
  401e53:	83 3d ae 36 20 00 00 	cmpl   $0x0,0x2036ae(%rip)        # 605508 <is_checker>
  401e5a:	74 14                	je     401e70 <illegalhandler+0x21>
  401e5c:	bf c8 31 40 00       	mov    $0x4031c8,%edi
  401e61:	e8 ea ed ff ff       	callq  400c50 <puts@plt>
  401e66:	b8 00 00 00 00       	mov    $0x0,%eax
  401e6b:	e8 4b fc ff ff       	callq  401abb <check_fail>
  401e70:	bf 48 33 40 00       	mov    $0x403348,%edi
  401e75:	e8 d6 ed ff ff       	callq  400c50 <puts@plt>
  401e7a:	bf 9f 31 40 00       	mov    $0x40319f,%edi
  401e7f:	e8 cc ed ff ff       	callq  400c50 <puts@plt>
  401e84:	be 00 00 00 00       	mov    $0x0,%esi
  401e89:	bf 00 00 00 00       	mov    $0x0,%edi
  401e8e:	e8 a9 fc ff ff       	callq  401b3c <notify_server>
  401e93:	bf 01 00 00 00       	mov    $0x1,%edi
  401e98:	e8 43 ef ff ff       	callq  400de0 <exit@plt>

0000000000401e9d <sigalrmhandler>:
  401e9d:	48 83 ec 08          	sub    $0x8,%rsp
  401ea1:	83 3d 60 36 20 00 00 	cmpl   $0x0,0x203660(%rip)        # 605508 <is_checker>
  401ea8:	74 14                	je     401ebe <sigalrmhandler+0x21>
  401eaa:	bf dc 31 40 00       	mov    $0x4031dc,%edi
  401eaf:	e8 9c ed ff ff       	callq  400c50 <puts@plt>
  401eb4:	b8 00 00 00 00       	mov    $0x0,%eax
  401eb9:	e8 fd fb ff ff       	callq  401abb <check_fail>
  401ebe:	be 05 00 00 00       	mov    $0x5,%esi
  401ec3:	bf 78 33 40 00       	mov    $0x403378,%edi
  401ec8:	b8 00 00 00 00       	mov    $0x0,%eax
  401ecd:	e8 ae ed ff ff       	callq  400c80 <printf@plt>
  401ed2:	be 00 00 00 00       	mov    $0x0,%esi
  401ed7:	bf 00 00 00 00       	mov    $0x0,%edi
  401edc:	e8 5b fc ff ff       	callq  401b3c <notify_server>
  401ee1:	bf 01 00 00 00       	mov    $0x1,%edi
  401ee6:	e8 f5 ee ff ff       	callq  400de0 <exit@plt>

0000000000401eeb <launch>:
  401eeb:	55                   	push   %rbp
  401eec:	48 89 e5             	mov    %rsp,%rbp
  401eef:	48 89 fa             	mov    %rdi,%rdx
  401ef2:	48 8d 47 1e          	lea    0x1e(%rdi),%rax
  401ef6:	48 83 e0 f0          	and    $0xfffffffffffffff0,%rax
  401efa:	48 29 c4             	sub    %rax,%rsp
  401efd:	48 8d 7c 24 0f       	lea    0xf(%rsp),%rdi
  401f02:	48 83 e7 f0          	and    $0xfffffffffffffff0,%rdi
  401f06:	be f4 00 00 00       	mov    $0xf4,%esi
  401f0b:	e8 80 ed ff ff       	callq  400c90 <memset@plt>
  401f10:	48 8b 05 a9 35 20 00 	mov    0x2035a9(%rip),%rax        # 6054c0 <stdin@@GLIBC_2.2.5>
  401f17:	48 39 05 d2 35 20 00 	cmp    %rax,0x2035d2(%rip)        # 6054f0 <infile>
  401f1e:	75 0f                	jne    401f2f <launch+0x44>
  401f20:	bf e4 31 40 00       	mov    $0x4031e4,%edi
  401f25:	b8 00 00 00 00       	mov    $0x0,%eax
  401f2a:	e8 51 ed ff ff       	callq  400c80 <printf@plt>
  401f2f:	c7 05 c3 35 20 00 00 	movl   $0x0,0x2035c3(%rip)        # 6054fc <vlevel>
  401f36:	00 00 00 
  401f39:	b8 00 00 00 00       	mov    $0x0,%eax
  401f3e:	e8 c6 f9 ff ff       	callq  401909 <test>
  401f43:	83 3d be 35 20 00 00 	cmpl   $0x0,0x2035be(%rip)        # 605508 <is_checker>
  401f4a:	74 14                	je     401f60 <launch+0x75>
  401f4c:	bf f1 31 40 00       	mov    $0x4031f1,%edi
  401f51:	e8 fa ec ff ff       	callq  400c50 <puts@plt>
  401f56:	b8 00 00 00 00       	mov    $0x0,%eax
  401f5b:	e8 5b fb ff ff       	callq  401abb <check_fail>
  401f60:	bf fc 31 40 00       	mov    $0x4031fc,%edi
  401f65:	e8 e6 ec ff ff       	callq  400c50 <puts@plt>
  401f6a:	c9                   	leaveq 
  401f6b:	c3                   	retq   

0000000000401f6c <stable_launch>:
  401f6c:	53                   	push   %rbx
  401f6d:	48 89 3d 74 35 20 00 	mov    %rdi,0x203574(%rip)        # 6054e8 <global_offset>
  401f74:	41 b9 00 00 00 00    	mov    $0x0,%r9d
  401f7a:	41 b8 00 00 00 00    	mov    $0x0,%r8d
  401f80:	b9 32 01 00 00       	mov    $0x132,%ecx
  401f85:	ba 07 00 00 00       	mov    $0x7,%edx
  401f8a:	be 00 00 10 00       	mov    $0x100000,%esi
  401f8f:	bf 00 60 58 55       	mov    $0x55586000,%edi
  401f94:	e8 d7 ec ff ff       	callq  400c70 <mmap@plt>
  401f99:	48 89 c3             	mov    %rax,%rbx
  401f9c:	48 3d 00 60 58 55    	cmp    $0x55586000,%rax
  401fa2:	74 32                	je     401fd6 <stable_launch+0x6a>
  401fa4:	be 00 00 10 00       	mov    $0x100000,%esi
  401fa9:	48 89 c7             	mov    %rax,%rdi
  401fac:	e8 cf ed ff ff       	callq  400d80 <munmap@plt>
  401fb1:	ba 00 60 58 55       	mov    $0x55586000,%edx
  401fb6:	be b0 33 40 00       	mov    $0x4033b0,%esi
  401fbb:	48 8b 3d 0e 35 20 00 	mov    0x20350e(%rip),%rdi        # 6054d0 <stderr@@GLIBC_2.2.5>
  401fc2:	b8 00 00 00 00       	mov    $0x0,%eax
  401fc7:	e8 24 ed ff ff       	callq  400cf0 <fprintf@plt>
  401fcc:	bf 01 00 00 00       	mov    $0x1,%edi
  401fd1:	e8 0a ee ff ff       	callq  400de0 <exit@plt>
  401fd6:	48 8d 90 f8 ff 0f 00 	lea    0xffff8(%rax),%rdx
  401fdd:	48 89 15 4c 41 20 00 	mov    %rdx,0x20414c(%rip)        # 606130 <stack_top>
  401fe4:	48 89 e0             	mov    %rsp,%rax
  401fe7:	48 89 d4             	mov    %rdx,%rsp
  401fea:	48 89 c2             	mov    %rax,%rdx
  401fed:	48 89 15 ec 34 20 00 	mov    %rdx,0x2034ec(%rip)        # 6054e0 <global_save_stack>
  401ff4:	48 8b 3d ed 34 20 00 	mov    0x2034ed(%rip),%rdi        # 6054e8 <global_offset>
  401ffb:	e8 eb fe ff ff       	callq  401eeb <launch>
  402000:	48 8b 05 d9 34 20 00 	mov    0x2034d9(%rip),%rax        # 6054e0 <global_save_stack>
  402007:	48 89 c4             	mov    %rax,%rsp
  40200a:	be 00 00 10 00       	mov    $0x100000,%esi
  40200f:	48 89 df             	mov    %rbx,%rdi
  402012:	e8 69 ed ff ff       	callq  400d80 <munmap@plt>
  402017:	5b                   	pop    %rbx
  402018:	c3                   	retq   
  402019:	0f 1f 80 00 00 00 00 	nopl   0x0(%rax)

0000000000402020 <rio_readinitb>:
  402020:	89 37                	mov    %esi,(%rdi)
  402022:	c7 47 04 00 00 00 00 	movl   $0x0,0x4(%rdi)
  402029:	48 8d 47 10          	lea    0x10(%rdi),%rax
  40202d:	48 89 47 08          	mov    %rax,0x8(%rdi)
  402031:	c3                   	retq   

0000000000402032 <sigalrm_handler>:
  402032:	48 83 ec 08          	sub    $0x8,%rsp
  402036:	ba 00 00 00 00       	mov    $0x0,%edx
  40203b:	be f0 33 40 00       	mov    $0x4033f0,%esi
  402040:	48 8b 3d 89 34 20 00 	mov    0x203489(%rip),%rdi        # 6054d0 <stderr@@GLIBC_2.2.5>
  402047:	b8 00 00 00 00       	mov    $0x0,%eax
  40204c:	e8 9f ec ff ff       	callq  400cf0 <fprintf@plt>
  402051:	bf 01 00 00 00       	mov    $0x1,%edi
  402056:	e8 85 ed ff ff       	callq  400de0 <exit@plt>

000000000040205b <urlencode>:
  40205b:	41 54                	push   %r12
  40205d:	55                   	push   %rbp
  40205e:	53                   	push   %rbx
  40205f:	48 83 ec 10          	sub    $0x10,%rsp
  402063:	48 89 fb             	mov    %rdi,%rbx
  402066:	48 89 f5             	mov    %rsi,%rbp
  402069:	b8 00 00 00 00       	mov    $0x0,%eax
  40206e:	48 c7 c1 ff ff ff ff 	mov    $0xffffffffffffffff,%rcx
  402075:	f2 ae                	repnz scas %es:(%rdi),%al
  402077:	48 f7 d1             	not    %rcx
  40207a:	8d 41 ff             	lea    -0x1(%rcx),%eax
  40207d:	e9 93 00 00 00       	jmpq   402115 <urlencode+0xba>
  402082:	0f b6 13             	movzbl (%rbx),%edx
  402085:	80 fa 2a             	cmp    $0x2a,%dl
  402088:	0f 94 c1             	sete   %cl
  40208b:	80 fa 2d             	cmp    $0x2d,%dl
  40208e:	0f 94 c0             	sete   %al
  402091:	08 c1                	or     %al,%cl
  402093:	75 1f                	jne    4020b4 <urlencode+0x59>
  402095:	80 fa 2e             	cmp    $0x2e,%dl
  402098:	74 1a                	je     4020b4 <urlencode+0x59>
  40209a:	80 fa 5f             	cmp    $0x5f,%dl
  40209d:	74 15                	je     4020b4 <urlencode+0x59>
  40209f:	8d 42 d0             	lea    -0x30(%rdx),%eax
  4020a2:	3c 09                	cmp    $0x9,%al
  4020a4:	76 0e                	jbe    4020b4 <urlencode+0x59>
  4020a6:	8d 42 bf             	lea    -0x41(%rdx),%eax
  4020a9:	3c 19                	cmp    $0x19,%al
  4020ab:	76 07                	jbe    4020b4 <urlencode+0x59>
  4020ad:	8d 42 9f             	lea    -0x61(%rdx),%eax
  4020b0:	3c 19                	cmp    $0x19,%al
  4020b2:	77 09                	ja     4020bd <urlencode+0x62>
  4020b4:	88 55 00             	mov    %dl,0x0(%rbp)
  4020b7:	48 8d 6d 01          	lea    0x1(%rbp),%rbp
  4020bb:	eb 51                	jmp    40210e <urlencode+0xb3>
  4020bd:	80 fa 20             	cmp    $0x20,%dl
  4020c0:	75 0a                	jne    4020cc <urlencode+0x71>
  4020c2:	c6 45 00 2b          	movb   $0x2b,0x0(%rbp)
  4020c6:	48 8d 6d 01          	lea    0x1(%rbp),%rbp
  4020ca:	eb 42                	jmp    40210e <urlencode+0xb3>
  4020cc:	8d 42 e0             	lea    -0x20(%rdx),%eax
  4020cf:	3c 5f                	cmp    $0x5f,%al
  4020d1:	0f 96 c1             	setbe  %cl
  4020d4:	80 fa 09             	cmp    $0x9,%dl
  4020d7:	0f 94 c0             	sete   %al
  4020da:	08 c1                	or     %al,%cl
  4020dc:	74 45                	je     402123 <urlencode+0xc8>
  4020de:	0f b6 d2             	movzbl %dl,%edx
  4020e1:	be 98 34 40 00       	mov    $0x403498,%esi
  4020e6:	48 89 e7             	mov    %rsp,%rdi
  4020e9:	b8 00 00 00 00       	mov    $0x0,%eax
  4020ee:	e8 dd ec ff ff       	callq  400dd0 <sprintf@plt>
  4020f3:	0f b6 04 24          	movzbl (%rsp),%eax
  4020f7:	88 45 00             	mov    %al,0x0(%rbp)
  4020fa:	0f b6 44 24 01       	movzbl 0x1(%rsp),%eax
  4020ff:	88 45 01             	mov    %al,0x1(%rbp)
  402102:	0f b6 44 24 02       	movzbl 0x2(%rsp),%eax
  402107:	88 45 02             	mov    %al,0x2(%rbp)
  40210a:	48 8d 6d 03          	lea    0x3(%rbp),%rbp
  40210e:	48 83 c3 01          	add    $0x1,%rbx
  402112:	44 89 e0             	mov    %r12d,%eax
  402115:	44 8d 60 ff          	lea    -0x1(%rax),%r12d
  402119:	85 c0                	test   %eax,%eax
  40211b:	0f 85 61 ff ff ff    	jne    402082 <urlencode+0x27>
  402121:	eb 05                	jmp    402128 <urlencode+0xcd>
  402123:	b8 ff ff ff ff       	mov    $0xffffffff,%eax
  402128:	48 83 c4 10          	add    $0x10,%rsp
  40212c:	5b                   	pop    %rbx
  40212d:	5d                   	pop    %rbp
  40212e:	41 5c                	pop    %r12
  402130:	c3                   	retq   

0000000000402131 <rio_writen>:
  402131:	41 55                	push   %r13
  402133:	41 54                	push   %r12
  402135:	55                   	push   %rbp
  402136:	53                   	push   %rbx
  402137:	48 83 ec 08          	sub    $0x8,%rsp
  40213b:	41 89 fc             	mov    %edi,%r12d
  40213e:	48 89 f5             	mov    %rsi,%rbp
  402141:	49 89 d5             	mov    %rdx,%r13
  402144:	48 89 d3             	mov    %rdx,%rbx
  402147:	eb 28                	jmp    402171 <rio_writen+0x40>
  402149:	48 89 da             	mov    %rbx,%rdx
  40214c:	48 89 ee             	mov    %rbp,%rsi
  40214f:	44 89 e7             	mov    %r12d,%edi
  402152:	e8 09 eb ff ff       	callq  400c60 <write@plt>
  402157:	48 85 c0             	test   %rax,%rax
  40215a:	7f 0f                	jg     40216b <rio_writen+0x3a>
  40215c:	e8 af ea ff ff       	callq  400c10 <__errno_location@plt>
  402161:	83 38 04             	cmpl   $0x4,(%rax)
  402164:	75 15                	jne    40217b <rio_writen+0x4a>
  402166:	b8 00 00 00 00       	mov    $0x0,%eax
  40216b:	48 29 c3             	sub    %rax,%rbx
  40216e:	48 01 c5             	add    %rax,%rbp
  402171:	48 85 db             	test   %rbx,%rbx
  402174:	75 d3                	jne    402149 <rio_writen+0x18>
  402176:	4c 89 e8             	mov    %r13,%rax
  402179:	eb 07                	jmp    402182 <rio_writen+0x51>
  40217b:	48 c7 c0 ff ff ff ff 	mov    $0xffffffffffffffff,%rax
  402182:	48 83 c4 08          	add    $0x8,%rsp
  402186:	5b                   	pop    %rbx
  402187:	5d                   	pop    %rbp
  402188:	41 5c                	pop    %r12
  40218a:	41 5d                	pop    %r13
  40218c:	c3                   	retq   

000000000040218d <rio_read>:
  40218d:	41 56                	push   %r14
  40218f:	41 55                	push   %r13
  402191:	41 54                	push   %r12
  402193:	55                   	push   %rbp
  402194:	53                   	push   %rbx
  402195:	48 89 fb             	mov    %rdi,%rbx
  402198:	49 89 f6             	mov    %rsi,%r14
  40219b:	49 89 d5             	mov    %rdx,%r13
  40219e:	4c 8d 67 10          	lea    0x10(%rdi),%r12
  4021a2:	eb 2a                	jmp    4021ce <rio_read+0x41>
  4021a4:	ba 00 20 00 00       	mov    $0x2000,%edx
  4021a9:	4c 89 e6             	mov    %r12,%rsi
  4021ac:	8b 3b                	mov    (%rbx),%edi
  4021ae:	e8 0d eb ff ff       	callq  400cc0 <read@plt>
  4021b3:	89 43 04             	mov    %eax,0x4(%rbx)
  4021b6:	85 c0                	test   %eax,%eax
  4021b8:	79 0c                	jns    4021c6 <rio_read+0x39>
  4021ba:	e8 51 ea ff ff       	callq  400c10 <__errno_location@plt>
  4021bf:	83 38 04             	cmpl   $0x4,(%rax)
  4021c2:	74 0a                	je     4021ce <rio_read+0x41>
  4021c4:	eb 37                	jmp    4021fd <rio_read+0x70>
  4021c6:	85 c0                	test   %eax,%eax
  4021c8:	74 3c                	je     402206 <rio_read+0x79>
  4021ca:	4c 89 63 08          	mov    %r12,0x8(%rbx)
  4021ce:	8b 6b 04             	mov    0x4(%rbx),%ebp
  4021d1:	85 ed                	test   %ebp,%ebp
  4021d3:	7e cf                	jle    4021a4 <rio_read+0x17>
  4021d5:	89 e8                	mov    %ebp,%eax
  4021d7:	4c 39 e8             	cmp    %r13,%rax
  4021da:	72 03                	jb     4021df <rio_read+0x52>
  4021dc:	44 89 ed             	mov    %r13d,%ebp
  4021df:	4c 63 e5             	movslq %ebp,%r12
  4021e2:	48 8b 73 08          	mov    0x8(%rbx),%rsi
  4021e6:	4c 89 e2             	mov    %r12,%rdx
  4021e9:	4c 89 f7             	mov    %r14,%rdi
  4021ec:	e8 2f eb ff ff       	callq  400d20 <memcpy@plt>
  4021f1:	4c 01 63 08          	add    %r12,0x8(%rbx)
  4021f5:	29 6b 04             	sub    %ebp,0x4(%rbx)
  4021f8:	4c 89 e0             	mov    %r12,%rax
  4021fb:	eb 0e                	jmp    40220b <rio_read+0x7e>
  4021fd:	48 c7 c0 ff ff ff ff 	mov    $0xffffffffffffffff,%rax
  402204:	eb 05                	jmp    40220b <rio_read+0x7e>
  402206:	b8 00 00 00 00       	mov    $0x0,%eax
  40220b:	5b                   	pop    %rbx
  40220c:	5d                   	pop    %rbp
  40220d:	41 5c                	pop    %r12
  40220f:	41 5d                	pop    %r13
  402211:	41 5e                	pop    %r14
  402213:	c3                   	retq   

0000000000402214 <rio_readlineb>:
  402214:	41 55                	push   %r13
  402216:	41 54                	push   %r12
  402218:	55                   	push   %rbp
  402219:	53                   	push   %rbx
  40221a:	48 83 ec 18          	sub    $0x18,%rsp
  40221e:	49 89 fd             	mov    %rdi,%r13
  402221:	48 89 f5             	mov    %rsi,%rbp
  402224:	49 89 d4             	mov    %rdx,%r12
  402227:	bb 01 00 00 00       	mov    $0x1,%ebx
  40222c:	eb 3d                	jmp    40226b <rio_readlineb+0x57>
  40222e:	ba 01 00 00 00       	mov    $0x1,%edx
  402233:	48 8d 74 24 0f       	lea    0xf(%rsp),%rsi
  402238:	4c 89 ef             	mov    %r13,%rdi
  40223b:	e8 4d ff ff ff       	callq  40218d <rio_read>
  402240:	83 f8 01             	cmp    $0x1,%eax
  402243:	75 12                	jne    402257 <rio_readlineb+0x43>
  402245:	48 8d 55 01          	lea    0x1(%rbp),%rdx
  402249:	0f b6 44 24 0f       	movzbl 0xf(%rsp),%eax
  40224e:	88 45 00             	mov    %al,0x0(%rbp)
  402251:	3c 0a                	cmp    $0xa,%al
  402253:	75 0f                	jne    402264 <rio_readlineb+0x50>
  402255:	eb 1b                	jmp    402272 <rio_readlineb+0x5e>
  402257:	85 c0                	test   %eax,%eax
  402259:	75 23                	jne    40227e <rio_readlineb+0x6a>
  40225b:	48 83 fb 01          	cmp    $0x1,%rbx
  40225f:	90                   	nop
  402260:	75 13                	jne    402275 <rio_readlineb+0x61>
  402262:	eb 23                	jmp    402287 <rio_readlineb+0x73>
  402264:	48 83 c3 01          	add    $0x1,%rbx
  402268:	48 89 d5             	mov    %rdx,%rbp
  40226b:	4c 39 e3             	cmp    %r12,%rbx
  40226e:	72 be                	jb     40222e <rio_readlineb+0x1a>
  402270:	eb 03                	jmp    402275 <rio_readlineb+0x61>
  402272:	48 89 d5             	mov    %rdx,%rbp
  402275:	c6 45 00 00          	movb   $0x0,0x0(%rbp)
  402279:	48 89 d8             	mov    %rbx,%rax
  40227c:	eb 0e                	jmp    40228c <rio_readlineb+0x78>
  40227e:	48 c7 c0 ff ff ff ff 	mov    $0xffffffffffffffff,%rax
  402285:	eb 05                	jmp    40228c <rio_readlineb+0x78>
  402287:	b8 00 00 00 00       	mov    $0x0,%eax
  40228c:	48 83 c4 18          	add    $0x18,%rsp
  402290:	5b                   	pop    %rbx
  402291:	5d                   	pop    %rbp
  402292:	41 5c                	pop    %r12
  402294:	41 5d                	pop    %r13
  402296:	c3                   	retq   

0000000000402297 <submitr>:
  402297:	41 57                	push   %r15
  402299:	41 56                	push   %r14
  40229b:	41 55                	push   %r13
  40229d:	41 54                	push   %r12
  40229f:	55                   	push   %rbp
  4022a0:	53                   	push   %rbx
  4022a1:	48 81 ec 68 c0 00 00 	sub    $0xc068,%rsp
  4022a8:	49 89 fc             	mov    %rdi,%r12
  4022ab:	89 74 24 14          	mov    %esi,0x14(%rsp)
  4022af:	49 89 d7             	mov    %rdx,%r15
  4022b2:	49 89 ce             	mov    %rcx,%r14
  4022b5:	4c 89 44 24 18       	mov    %r8,0x18(%rsp)
  4022ba:	4d 89 cd             	mov    %r9,%r13
  4022bd:	48 8b 9c 24 a0 c0 00 	mov    0xc0a0(%rsp),%rbx
  4022c4:	00 
  4022c5:	c7 84 24 3c 20 00 00 	movl   $0x0,0x203c(%rsp)
  4022cc:	00 00 00 00 
  4022d0:	ba 00 00 00 00       	mov    $0x0,%edx
  4022d5:	be 01 00 00 00       	mov    $0x1,%esi
  4022da:	bf 02 00 00 00       	mov    $0x2,%edi
  4022df:	e8 1c eb ff ff       	callq  400e00 <socket@plt>
  4022e4:	89 c5                	mov    %eax,%ebp
  4022e6:	85 c0                	test   %eax,%eax
  4022e8:	79 4e                	jns    402338 <submitr+0xa1>
  4022ea:	48 b8 45 72 72 6f 72 	movabs $0x43203a726f727245,%rax
  4022f1:	3a 20 43 
  4022f4:	48 89 03             	mov    %rax,(%rbx)
  4022f7:	48 b8 6c 69 65 6e 74 	movabs $0x6e7520746e65696c,%rax
  4022fe:	20 75 6e 
  402301:	48 89 43 08          	mov    %rax,0x8(%rbx)
  402305:	48 b8 61 62 6c 65 20 	movabs $0x206f7420656c6261,%rax
  40230c:	74 6f 20 
  40230f:	48 89 43 10          	mov    %rax,0x10(%rbx)
  402313:	48 b8 63 72 65 61 74 	movabs $0x7320657461657263,%rax
  40231a:	65 20 73 
  40231d:	48 89 43 18          	mov    %rax,0x18(%rbx)
  402321:	c7 43 20 6f 63 6b 65 	movl   $0x656b636f,0x20(%rbx)
  402328:	66 c7 43 24 74 00    	movw   $0x74,0x24(%rbx)
  40232e:	b8 ff ff ff ff       	mov    $0xffffffff,%eax
  402333:	e9 80 06 00 00       	jmpq   4029b8 <submitr+0x721>
  402338:	48 c7 84 24 50 c0 00 	movq   $0x0,0xc050(%rsp)
  40233f:	00 00 00 00 00 
  402344:	48 c7 84 24 58 c0 00 	movq   $0x0,0xc058(%rsp)
  40234b:	00 00 00 00 00 
  402350:	66 c7 84 24 50 c0 00 	movw   $0x2,0xc050(%rsp)
  402357:	00 02 00 
  40235a:	0f b7 44 24 14       	movzwl 0x14(%rsp),%eax
  40235f:	66 c1 c8 08          	ror    $0x8,%ax
  402363:	66 89 84 24 52 c0 00 	mov    %ax,0xc052(%rsp)
  40236a:	00 
  40236b:	48 8d 94 24 54 c0 00 	lea    0xc054(%rsp),%rdx
  402372:	00 
  402373:	4c 89 e6             	mov    %r12,%rsi
  402376:	bf 02 00 00 00       	mov    $0x2,%edi
  40237b:	e8 b0 e9 ff ff       	callq  400d30 <inet_pton@plt>
  402380:	83 f8 01             	cmp    $0x1,%eax
  402383:	74 57                	je     4023dc <submitr+0x145>
  402385:	4c 89 e6             	mov    %r12,%rsi
  402388:	48 89 df             	mov    %rbx,%rdi
  40238b:	e8 b0 e8 ff ff       	callq  400c40 <strcpy@plt>
  402390:	48 b8 45 72 72 6f 72 	movabs $0x49203a726f727245,%rax
  402397:	3a 20 49 
  40239a:	48 89 03             	mov    %rax,(%rbx)
  40239d:	48 b8 6e 76 61 6c 69 	movabs $0x732064696c61766e,%rax
  4023a4:	64 20 73 
  4023a7:	48 89 43 08          	mov    %rax,0x8(%rbx)
  4023ab:	48 b8 65 72 76 65 72 	movabs $0x7069207265767265,%rax
  4023b2:	20 69 70 
  4023b5:	48 89 43 10          	mov    %rax,0x10(%rbx)
  4023b9:	48 b8 20 61 64 64 72 	movabs $0x7373657264646120,%rax
  4023c0:	65 73 73 
  4023c3:	48 89 43 18          	mov    %rax,0x18(%rbx)
  4023c7:	c6 43 20 00          	movb   $0x0,0x20(%rbx)
  4023cb:	89 ef                	mov    %ebp,%edi
  4023cd:	e8 de e8 ff ff       	callq  400cb0 <close@plt>
  4023d2:	b8 ff ff ff ff       	mov    $0xffffffff,%eax
  4023d7:	e9 dc 05 00 00       	jmpq   4029b8 <submitr+0x721>
  4023dc:	ba 10 00 00 00       	mov    $0x10,%edx
  4023e1:	48 8d b4 24 50 c0 00 	lea    0xc050(%rsp),%rsi
  4023e8:	00 
  4023e9:	89 ef                	mov    %ebp,%edi
  4023eb:	e8 00 ea ff ff       	callq  400df0 <connect@plt>
  4023f0:	85 c0                	test   %eax,%eax
  4023f2:	79 59                	jns    40244d <submitr+0x1b6>
  4023f4:	48 b8 45 72 72 6f 72 	movabs $0x55203a726f727245,%rax
  4023fb:	3a 20 55 
  4023fe:	48 89 03             	mov    %rax,(%rbx)
  402401:	48 b8 6e 61 62 6c 65 	movabs $0x6f7420656c62616e,%rax
  402408:	20 74 6f 
  40240b:	48 89 43 08          	mov    %rax,0x8(%rbx)
  40240f:	48 b8 20 63 6f 6e 6e 	movabs $0x7463656e6e6f6320,%rax
  402416:	65 63 74 
  402419:	48 89 43 10          	mov    %rax,0x10(%rbx)
  40241d:	48 b8 20 74 6f 20 74 	movabs $0x20656874206f7420,%rax
  402424:	68 65 20 
  402427:	48 89 43 18          	mov    %rax,0x18(%rbx)
  40242b:	c7 43 20 73 65 72 76 	movl   $0x76726573,0x20(%rbx)
  402432:	66 c7 43 24 65 72    	movw   $0x7265,0x24(%rbx)
  402438:	c6 43 26 00          	movb   $0x0,0x26(%rbx)
  40243c:	89 ef                	mov    %ebp,%edi
  40243e:	e8 6d e8 ff ff       	callq  400cb0 <close@plt>
  402443:	b8 ff ff ff ff       	mov    $0xffffffff,%eax
  402448:	e9 6b 05 00 00       	jmpq   4029b8 <submitr+0x721>
  40244d:	48 c7 c2 ff ff ff ff 	mov    $0xffffffffffffffff,%rdx
  402454:	4c 89 ef             	mov    %r13,%rdi
  402457:	b8 00 00 00 00       	mov    $0x0,%eax
  40245c:	48 89 d1             	mov    %rdx,%rcx
  40245f:	f2 ae                	repnz scas %es:(%rdi),%al
  402461:	48 f7 d1             	not    %rcx
  402464:	48 89 ce             	mov    %rcx,%rsi
  402467:	4c 89 ff             	mov    %r15,%rdi
  40246a:	48 89 d1             	mov    %rdx,%rcx
  40246d:	f2 ae                	repnz scas %es:(%rdi),%al
  40246f:	48 f7 d1             	not    %rcx
  402472:	49 89 c8             	mov    %rcx,%r8
  402475:	4c 89 f7             	mov    %r14,%rdi
  402478:	48 89 d1             	mov    %rdx,%rcx
  40247b:	f2 ae                	repnz scas %es:(%rdi),%al
  40247d:	49 29 c8             	sub    %rcx,%r8
  402480:	48 8b 7c 24 18       	mov    0x18(%rsp),%rdi
  402485:	48 89 d1             	mov    %rdx,%rcx
  402488:	f2 ae                	repnz scas %es:(%rdi),%al
  40248a:	49 29 c8             	sub    %rcx,%r8
  40248d:	48 8d 44 76 fd       	lea    -0x3(%rsi,%rsi,2),%rax
  402492:	49 8d 44 00 7b       	lea    0x7b(%r8,%rax,1),%rax
  402497:	48 3d 00 20 00 00    	cmp    $0x2000,%rax
  40249d:	76 72                	jbe    402511 <submitr+0x27a>
  40249f:	48 b8 45 72 72 6f 72 	movabs $0x52203a726f727245,%rax
  4024a6:	3a 20 52 
  4024a9:	48 89 03             	mov    %rax,(%rbx)
  4024ac:	48 b8 65 73 75 6c 74 	movabs $0x747320746c757365,%rax
  4024b3:	20 73 74 
  4024b6:	48 89 43 08          	mov    %rax,0x8(%rbx)
  4024ba:	48 b8 72 69 6e 67 20 	movabs $0x6f6f7420676e6972,%rax
  4024c1:	74 6f 6f 
  4024c4:	48 89 43 10          	mov    %rax,0x10(%rbx)
  4024c8:	48 b8 20 6c 61 72 67 	movabs $0x202e656772616c20,%rax
  4024cf:	65 2e 20 
  4024d2:	48 89 43 18          	mov    %rax,0x18(%rbx)
  4024d6:	48 b8 49 6e 63 72 65 	movabs $0x6573616572636e49,%rax
  4024dd:	61 73 65 
  4024e0:	48 89 43 20          	mov    %rax,0x20(%rbx)
  4024e4:	48 b8 20 53 55 42 4d 	movabs $0x5254494d42555320,%rax
  4024eb:	49 54 52 
  4024ee:	48 89 43 28          	mov    %rax,0x28(%rbx)
  4024f2:	48 b8 5f 4d 41 58 42 	movabs $0x46554258414d5f,%rax
  4024f9:	55 46 00 
  4024fc:	48 89 43 30          	mov    %rax,0x30(%rbx)
  402500:	89 ef                	mov    %ebp,%edi
  402502:	e8 a9 e7 ff ff       	callq  400cb0 <close@plt>
  402507:	b8 ff ff ff ff       	mov    $0xffffffff,%eax
  40250c:	e9 a7 04 00 00       	jmpq   4029b8 <submitr+0x721>
  402511:	48 8d b4 24 40 40 00 	lea    0x4040(%rsp),%rsi
  402518:	00 
  402519:	b9 00 04 00 00       	mov    $0x400,%ecx
  40251e:	b8 00 00 00 00       	mov    $0x0,%eax
  402523:	48 89 f7             	mov    %rsi,%rdi
  402526:	f3 48 ab             	rep stos %rax,%es:(%rdi)
  402529:	4c 89 ef             	mov    %r13,%rdi
  40252c:	e8 2a fb ff ff       	callq  40205b <urlencode>
  402531:	85 c0                	test   %eax,%eax
  402533:	0f 89 8a 00 00 00    	jns    4025c3 <submitr+0x32c>
  402539:	48 b8 45 72 72 6f 72 	movabs $0x52203a726f727245,%rax
  402540:	3a 20 52 
  402543:	48 89 03             	mov    %rax,(%rbx)
  402546:	48 b8 65 73 75 6c 74 	movabs $0x747320746c757365,%rax
  40254d:	20 73 74 
  402550:	48 89 43 08          	mov    %rax,0x8(%rbx)
  402554:	48 b8 72 69 6e 67 20 	movabs $0x6e6f6320676e6972,%rax
  40255b:	63 6f 6e 
  40255e:	48 89 43 10          	mov    %rax,0x10(%rbx)
  402562:	48 b8 74 61 69 6e 73 	movabs $0x6e6120736e696174,%rax
  402569:	20 61 6e 
  40256c:	48 89 43 18          	mov    %rax,0x18(%rbx)
  402570:	48 b8 20 69 6c 6c 65 	movabs $0x6c6167656c6c6920,%rax
  402577:	67 61 6c 
  40257a:	48 89 43 20          	mov    %rax,0x20(%rbx)
  40257e:	48 b8 20 6f 72 20 75 	movabs $0x72706e7520726f20,%rax
  402585:	6e 70 72 
  402588:	48 89 43 28          	mov    %rax,0x28(%rbx)
  40258c:	48 b8 69 6e 74 61 62 	movabs $0x20656c6261746e69,%rax
  402593:	6c 65 20 
  402596:	48 89 43 30          	mov    %rax,0x30(%rbx)
  40259a:	48 b8 63 68 61 72 61 	movabs $0x6574636172616863,%rax
  4025a1:	63 74 65 
  4025a4:	48 89 43 38          	mov    %rax,0x38(%rbx)
  4025a8:	66 c7 43 40 72 2e    	movw   $0x2e72,0x40(%rbx)
  4025ae:	c6 43 42 00          	movb   $0x0,0x42(%rbx)
  4025b2:	89 ef                	mov    %ebp,%edi
  4025b4:	e8 f7 e6 ff ff       	callq  400cb0 <close@plt>
  4025b9:	b8 ff ff ff ff       	mov    $0xffffffff,%eax
  4025be:	e9 f5 03 00 00       	jmpq   4029b8 <submitr+0x721>
  4025c3:	bf 9f 34 40 00       	mov    $0x40349f,%edi
  4025c8:	e8 23 e6 ff ff       	callq  400bf0 <getenv@plt>
  4025cd:	48 ba 6e 6f 63 67 75 	movabs $0x7265737567636f6e,%rdx
  4025d4:	73 65 72 
  4025d7:	48 89 54 24 20       	mov    %rdx,0x20(%rsp)
  4025dc:	66 c7 44 24 28 69 64 	movw   $0x6469,0x28(%rsp)
  4025e3:	c6 44 24 2a 00       	movb   $0x0,0x2a(%rsp)
  4025e8:	48 85 c0             	test   %rax,%rax
  4025eb:	75 05                	jne    4025f2 <submitr+0x35b>
  4025ed:	48 8d 44 24 20       	lea    0x20(%rsp),%rax
  4025f2:	4c 89 24 24          	mov    %r12,(%rsp)
  4025f6:	4c 8d 8c 24 40 40 00 	lea    0x4040(%rsp),%r9
  4025fd:	00 
  4025fe:	4d 89 f8             	mov    %r15,%r8
  402601:	48 89 c1             	mov    %rax,%rcx
  402604:	4c 89 f2             	mov    %r14,%rdx
  402607:	be 18 34 40 00       	mov    $0x403418,%esi
  40260c:	48 8d bc 24 40 60 00 	lea    0x6040(%rsp),%rdi
  402613:	00 
  402614:	b8 00 00 00 00       	mov    $0x0,%eax
  402619:	e8 b2 e7 ff ff       	callq  400dd0 <sprintf@plt>
  40261e:	48 8d bc 24 40 60 00 	lea    0x6040(%rsp),%rdi
  402625:	00 
  402626:	b8 00 00 00 00       	mov    $0x0,%eax
  40262b:	48 c7 c1 ff ff ff ff 	mov    $0xffffffffffffffff,%rcx
  402632:	f2 ae                	repnz scas %es:(%rdi),%al
  402634:	48 f7 d1             	not    %rcx
  402637:	48 8d 51 ff          	lea    -0x1(%rcx),%rdx
  40263b:	48 8d b4 24 40 60 00 	lea    0x6040(%rsp),%rsi
  402642:	00 
  402643:	89 ef                	mov    %ebp,%edi
  402645:	e8 e7 fa ff ff       	callq  402131 <rio_writen>
  40264a:	48 85 c0             	test   %rax,%rax
  40264d:	79 6e                	jns    4026bd <submitr+0x426>
  40264f:	48 b8 45 72 72 6f 72 	movabs $0x43203a726f727245,%rax
  402656:	3a 20 43 
  402659:	48 89 03             	mov    %rax,(%rbx)
  40265c:	48 b8 6c 69 65 6e 74 	movabs $0x6e7520746e65696c,%rax
  402663:	20 75 6e 
  402666:	48 89 43 08          	mov    %rax,0x8(%rbx)
  40266a:	48 b8 61 62 6c 65 20 	movabs $0x206f7420656c6261,%rax
  402671:	74 6f 20 
  402674:	48 89 43 10          	mov    %rax,0x10(%rbx)
  402678:	48 b8 77 72 69 74 65 	movabs $0x6f74206574697277,%rax
  40267f:	20 74 6f 
  402682:	48 89 43 18          	mov    %rax,0x18(%rbx)
  402686:	48 b8 20 74 68 65 20 	movabs $0x7365722065687420,%rax
  40268d:	72 65 73 
  402690:	48 89 43 20          	mov    %rax,0x20(%rbx)
  402694:	48 b8 75 6c 74 20 73 	movabs $0x7672657320746c75,%rax
  40269b:	65 72 76 
  40269e:	48 89 43 28          	mov    %rax,0x28(%rbx)
  4026a2:	66 c7 43 30 65 72    	movw   $0x7265,0x30(%rbx)
  4026a8:	c6 43 32 00          	movb   $0x0,0x32(%rbx)
  4026ac:	89 ef                	mov    %ebp,%edi
  4026ae:	e8 fd e5 ff ff       	callq  400cb0 <close@plt>
  4026b3:	b8 ff ff ff ff       	mov    $0xffffffff,%eax
  4026b8:	e9 fb 02 00 00       	jmpq   4029b8 <submitr+0x721>
  4026bd:	89 ee                	mov    %ebp,%esi
  4026bf:	48 8d bc 24 40 a0 00 	lea    0xa040(%rsp),%rdi
  4026c6:	00 
  4026c7:	e8 54 f9 ff ff       	callq  402020 <rio_readinitb>
  4026cc:	ba 00 20 00 00       	mov    $0x2000,%edx
  4026d1:	48 8d b4 24 40 60 00 	lea    0x6040(%rsp),%rsi
  4026d8:	00 
  4026d9:	48 8d bc 24 40 a0 00 	lea    0xa040(%rsp),%rdi
  4026e0:	00 
  4026e1:	e8 2e fb ff ff       	callq  402214 <rio_readlineb>
  4026e6:	48 85 c0             	test   %rax,%rax
  4026e9:	7f 7d                	jg     402768 <submitr+0x4d1>
  4026eb:	48 b8 45 72 72 6f 72 	movabs $0x43203a726f727245,%rax
  4026f2:	3a 20 43 
  4026f5:	48 89 03             	mov    %rax,(%rbx)
  4026f8:	48 b8 6c 69 65 6e 74 	movabs $0x6e7520746e65696c,%rax
  4026ff:	20 75 6e 
  402702:	48 89 43 08          	mov    %rax,0x8(%rbx)
  402706:	48 b8 61 62 6c 65 20 	movabs $0x206f7420656c6261,%rax
  40270d:	74 6f 20 
  402710:	48 89 43 10          	mov    %rax,0x10(%rbx)
  402714:	48 b8 72 65 61 64 20 	movabs $0x7269662064616572,%rax
  40271b:	66 69 72 
  40271e:	48 89 43 18          	mov    %rax,0x18(%rbx)
  402722:	48 b8 73 74 20 68 65 	movabs $0x6564616568207473,%rax
  402729:	61 64 65 
  40272c:	48 89 43 20          	mov    %rax,0x20(%rbx)
  402730:	48 b8 72 20 66 72 6f 	movabs $0x72206d6f72662072,%rax
  402737:	6d 20 72 
  40273a:	48 89 43 28          	mov    %rax,0x28(%rbx)
  40273e:	48 b8 65 73 75 6c 74 	movabs $0x657320746c757365,%rax
  402745:	20 73 65 
  402748:	48 89 43 30          	mov    %rax,0x30(%rbx)
  40274c:	c7 43 38 72 76 65 72 	movl   $0x72657672,0x38(%rbx)
  402753:	c6 43 3c 00          	movb   $0x0,0x3c(%rbx)
  402757:	89 ef                	mov    %ebp,%edi
  402759:	e8 52 e5 ff ff       	callq  400cb0 <close@plt>
  40275e:	b8 ff ff ff ff       	mov    $0xffffffff,%eax
  402763:	e9 50 02 00 00       	jmpq   4029b8 <submitr+0x721>
  402768:	4c 8d 44 24 30       	lea    0x30(%rsp),%r8
  40276d:	48 8d 8c 24 3c 20 00 	lea    0x203c(%rsp),%rcx
  402774:	00 
  402775:	48 8d 94 24 40 20 00 	lea    0x2040(%rsp),%rdx
  40277c:	00 
  40277d:	be a8 34 40 00       	mov    $0x4034a8,%esi
  402782:	48 8d bc 24 40 60 00 	lea    0x6040(%rsp),%rdi
  402789:	00 
  40278a:	b8 00 00 00 00       	mov    $0x0,%eax
  40278f:	e8 dc e5 ff ff       	callq  400d70 <__isoc99_sscanf@plt>
  402794:	e9 98 00 00 00       	jmpq   402831 <submitr+0x59a>
  402799:	ba 00 20 00 00       	mov    $0x2000,%edx
  40279e:	48 8d b4 24 40 60 00 	lea    0x6040(%rsp),%rsi
  4027a5:	00 
  4027a6:	48 8d bc 24 40 a0 00 	lea    0xa040(%rsp),%rdi
  4027ad:	00 
  4027ae:	e8 61 fa ff ff       	callq  402214 <rio_readlineb>
  4027b3:	48 85 c0             	test   %rax,%rax
  4027b6:	7f 79                	jg     402831 <submitr+0x59a>
  4027b8:	48 b8 45 72 72 6f 72 	movabs $0x43203a726f727245,%rax
  4027bf:	3a 20 43 
  4027c2:	48 89 03             	mov    %rax,(%rbx)
  4027c5:	48 b8 6c 69 65 6e 74 	movabs $0x6e7520746e65696c,%rax
  4027cc:	20 75 6e 
  4027cf:	48 89 43 08          	mov    %rax,0x8(%rbx)
  4027d3:	48 b8 61 62 6c 65 20 	movabs $0x206f7420656c6261,%rax
  4027da:	74 6f 20 
  4027dd:	48 89 43 10          	mov    %rax,0x10(%rbx)
  4027e1:	48 b8 72 65 61 64 20 	movabs $0x6165682064616572,%rax
  4027e8:	68 65 61 
  4027eb:	48 89 43 18          	mov    %rax,0x18(%rbx)
  4027ef:	48 b8 64 65 72 73 20 	movabs $0x6f72662073726564,%rax
  4027f6:	66 72 6f 
  4027f9:	48 89 43 20          	mov    %rax,0x20(%rbx)
  4027fd:	48 b8 6d 20 74 68 65 	movabs $0x657220656874206d,%rax
  402804:	20 72 65 
  402807:	48 89 43 28          	mov    %rax,0x28(%rbx)
  40280b:	48 b8 73 75 6c 74 20 	movabs $0x72657320746c7573,%rax
  402812:	73 65 72 
  402815:	48 89 43 30          	mov    %rax,0x30(%rbx)
  402819:	c7 43 38 76 65 72 00 	movl   $0x726576,0x38(%rbx)
  402820:	89 ef                	mov    %ebp,%edi
  402822:	e8 89 e4 ff ff       	callq  400cb0 <close@plt>
  402827:	b8 ff ff ff ff       	mov    $0xffffffff,%eax
  40282c:	e9 87 01 00 00       	jmpq   4029b8 <submitr+0x721>
  402831:	0f b6 84 24 40 60 00 	movzbl 0x6040(%rsp),%eax
  402838:	00 
  402839:	83 e8 0d             	sub    $0xd,%eax
  40283c:	75 15                	jne    402853 <submitr+0x5bc>
  40283e:	0f b6 84 24 41 60 00 	movzbl 0x6041(%rsp),%eax
  402845:	00 
  402846:	83 e8 0a             	sub    $0xa,%eax
  402849:	75 08                	jne    402853 <submitr+0x5bc>
  40284b:	0f b6 84 24 42 60 00 	movzbl 0x6042(%rsp),%eax
  402852:	00 
  402853:	85 c0                	test   %eax,%eax
  402855:	0f 85 3e ff ff ff    	jne    402799 <submitr+0x502>
  40285b:	ba 00 20 00 00       	mov    $0x2000,%edx
  402860:	48 8d b4 24 40 60 00 	lea    0x6040(%rsp),%rsi
  402867:	00 
  402868:	48 8d bc 24 40 a0 00 	lea    0xa040(%rsp),%rdi
  40286f:	00 
  402870:	e8 9f f9 ff ff       	callq  402214 <rio_readlineb>
  402875:	48 85 c0             	test   %rax,%rax
  402878:	0f 8f 83 00 00 00    	jg     402901 <submitr+0x66a>
  40287e:	48 b8 45 72 72 6f 72 	movabs $0x43203a726f727245,%rax
  402885:	3a 20 43 
  402888:	48 89 03             	mov    %rax,(%rbx)
  40288b:	48 b8 6c 69 65 6e 74 	movabs $0x6e7520746e65696c,%rax
  402892:	20 75 6e 
  402895:	48 89 43 08          	mov    %rax,0x8(%rbx)
  402899:	48 b8 61 62 6c 65 20 	movabs $0x206f7420656c6261,%rax
  4028a0:	74 6f 20 
  4028a3:	48 89 43 10          	mov    %rax,0x10(%rbx)
  4028a7:	48 b8 72 65 61 64 20 	movabs $0x6174732064616572,%rax
  4028ae:	73 74 61 
  4028b1:	48 89 43 18          	mov    %rax,0x18(%rbx)
  4028b5:	48 b8 74 75 73 20 6d 	movabs $0x7373656d20737574,%rax
  4028bc:	65 73 73 
  4028bf:	48 89 43 20          	mov    %rax,0x20(%rbx)
  4028c3:	48 b8 61 67 65 20 66 	movabs $0x6d6f726620656761,%rax
  4028ca:	72 6f 6d 
  4028cd:	48 89 43 28          	mov    %rax,0x28(%rbx)
  4028d1:	48 b8 20 72 65 73 75 	movabs $0x20746c7573657220,%rax
  4028d8:	6c 74 20 
  4028db:	48 89 43 30          	mov    %rax,0x30(%rbx)
  4028df:	c7 43 38 73 65 72 76 	movl   $0x76726573,0x38(%rbx)
  4028e6:	66 c7 43 3c 65 72    	movw   $0x7265,0x3c(%rbx)
  4028ec:	c6 43 3e 00          	movb   $0x0,0x3e(%rbx)
  4028f0:	89 ef                	mov    %ebp,%edi
  4028f2:	e8 b9 e3 ff ff       	callq  400cb0 <close@plt>
  4028f7:	b8 ff ff ff ff       	mov    $0xffffffff,%eax
  4028fc:	e9 b7 00 00 00       	jmpq   4029b8 <submitr+0x721>
  402901:	8b 94 24 3c 20 00 00 	mov    0x203c(%rsp),%edx
  402908:	81 fa c8 00 00 00    	cmp    $0xc8,%edx
  40290e:	74 28                	je     402938 <submitr+0x6a1>
  402910:	48 8d 4c 24 30       	lea    0x30(%rsp),%rcx
  402915:	be 68 34 40 00       	mov    $0x403468,%esi
  40291a:	48 89 df             	mov    %rbx,%rdi
  40291d:	b8 00 00 00 00       	mov    $0x0,%eax
  402922:	e8 a9 e4 ff ff       	callq  400dd0 <sprintf@plt>
  402927:	89 ef                	mov    %ebp,%edi
  402929:	e8 82 e3 ff ff       	callq  400cb0 <close@plt>
  40292e:	b8 ff ff ff ff       	mov    $0xffffffff,%eax
  402933:	e9 80 00 00 00       	jmpq   4029b8 <submitr+0x721>
  402938:	48 8d b4 24 40 60 00 	lea    0x6040(%rsp),%rsi
  40293f:	00 
  402940:	48 89 df             	mov    %rbx,%rdi
  402943:	e8 f8 e2 ff ff       	callq  400c40 <strcpy@plt>
  402948:	89 ef                	mov    %ebp,%edi
  40294a:	e8 61 e3 ff ff       	callq  400cb0 <close@plt>
  40294f:	0f b6 03             	movzbl (%rbx),%eax
  402952:	83 e8 4f             	sub    $0x4f,%eax
  402955:	75 18                	jne    40296f <submitr+0x6d8>
  402957:	0f b6 53 01          	movzbl 0x1(%rbx),%edx
  40295b:	83 ea 4b             	sub    $0x4b,%edx
  40295e:	75 11                	jne    402971 <submitr+0x6da>
  402960:	0f b6 53 02          	movzbl 0x2(%rbx),%edx
  402964:	83 ea 0a             	sub    $0xa,%edx
  402967:	75 08                	jne    402971 <submitr+0x6da>
  402969:	0f b6 53 03          	movzbl 0x3(%rbx),%edx
  40296d:	eb 02                	jmp    402971 <submitr+0x6da>
  40296f:	89 c2                	mov    %eax,%edx
  402971:	85 d2                	test   %edx,%edx
  402973:	74 30                	je     4029a5 <submitr+0x70e>
  402975:	bf b9 34 40 00       	mov    $0x4034b9,%edi
  40297a:	b9 05 00 00 00       	mov    $0x5,%ecx
  40297f:	48 89 de             	mov    %rbx,%rsi
  402982:	f3 a6                	repz cmpsb %es:(%rdi),%ds:(%rsi)
  402984:	0f 97 c1             	seta   %cl
  402987:	0f 92 c2             	setb   %dl
  40298a:	38 d1                	cmp    %dl,%cl
  40298c:	74 1e                	je     4029ac <submitr+0x715>
  40298e:	85 c0                	test   %eax,%eax
  402990:	75 0d                	jne    40299f <submitr+0x708>
  402992:	0f b6 43 01          	movzbl 0x1(%rbx),%eax
  402996:	83 e8 4b             	sub    $0x4b,%eax
  402999:	75 04                	jne    40299f <submitr+0x708>
  40299b:	0f b6 43 02          	movzbl 0x2(%rbx),%eax
  40299f:	85 c0                	test   %eax,%eax
  4029a1:	75 10                	jne    4029b3 <submitr+0x71c>
  4029a3:	eb 13                	jmp    4029b8 <submitr+0x721>
  4029a5:	b8 00 00 00 00       	mov    $0x0,%eax
  4029aa:	eb 0c                	jmp    4029b8 <submitr+0x721>
  4029ac:	b8 00 00 00 00       	mov    $0x0,%eax
  4029b1:	eb 05                	jmp    4029b8 <submitr+0x721>
  4029b3:	b8 ff ff ff ff       	mov    $0xffffffff,%eax
  4029b8:	48 81 c4 68 c0 00 00 	add    $0xc068,%rsp
  4029bf:	5b                   	pop    %rbx
  4029c0:	5d                   	pop    %rbp
  4029c1:	41 5c                	pop    %r12
  4029c3:	41 5d                	pop    %r13
  4029c5:	41 5e                	pop    %r14
  4029c7:	41 5f                	pop    %r15
  4029c9:	c3                   	retq   

00000000004029ca <init_timeout>:
  4029ca:	53                   	push   %rbx
  4029cb:	89 fb                	mov    %edi,%ebx
  4029cd:	85 ff                	test   %edi,%edi
  4029cf:	74 1f                	je     4029f0 <init_timeout+0x26>
  4029d1:	85 ff                	test   %edi,%edi
  4029d3:	79 05                	jns    4029da <init_timeout+0x10>
  4029d5:	bb 00 00 00 00       	mov    $0x0,%ebx
  4029da:	be 32 20 40 00       	mov    $0x402032,%esi
  4029df:	bf 0e 00 00 00       	mov    $0xe,%edi
  4029e4:	e8 f7 e2 ff ff       	callq  400ce0 <signal@plt>
  4029e9:	89 df                	mov    %ebx,%edi
  4029eb:	e8 b0 e2 ff ff       	callq  400ca0 <alarm@plt>
  4029f0:	5b                   	pop    %rbx
  4029f1:	c3                   	retq   

00000000004029f2 <init_driver>:
  4029f2:	55                   	push   %rbp
  4029f3:	53                   	push   %rbx
  4029f4:	48 83 ec 18          	sub    $0x18,%rsp
  4029f8:	48 89 fd             	mov    %rdi,%rbp
  4029fb:	be 01 00 00 00       	mov    $0x1,%esi
  402a00:	bf 0d 00 00 00       	mov    $0xd,%edi
  402a05:	e8 d6 e2 ff ff       	callq  400ce0 <signal@plt>
  402a0a:	be 01 00 00 00       	mov    $0x1,%esi
  402a0f:	bf 1d 00 00 00       	mov    $0x1d,%edi
  402a14:	e8 c7 e2 ff ff       	callq  400ce0 <signal@plt>
  402a19:	be 01 00 00 00       	mov    $0x1,%esi
  402a1e:	bf 1d 00 00 00       	mov    $0x1d,%edi
  402a23:	e8 b8 e2 ff ff       	callq  400ce0 <signal@plt>
  402a28:	ba 00 00 00 00       	mov    $0x0,%edx
  402a2d:	be 01 00 00 00       	mov    $0x1,%esi
  402a32:	bf 02 00 00 00       	mov    $0x2,%edi
  402a37:	e8 c4 e3 ff ff       	callq  400e00 <socket@plt>
  402a3c:	89 c3                	mov    %eax,%ebx
  402a3e:	85 c0                	test   %eax,%eax
  402a40:	79 4f                	jns    402a91 <init_driver+0x9f>
  402a42:	48 b8 45 72 72 6f 72 	movabs $0x43203a726f727245,%rax
  402a49:	3a 20 43 
  402a4c:	48 89 45 00          	mov    %rax,0x0(%rbp)
  402a50:	48 b8 6c 69 65 6e 74 	movabs $0x6e7520746e65696c,%rax
  402a57:	20 75 6e 
  402a5a:	48 89 45 08          	mov    %rax,0x8(%rbp)
  402a5e:	48 b8 61 62 6c 65 20 	movabs $0x206f7420656c6261,%rax
  402a65:	74 6f 20 
  402a68:	48 89 45 10          	mov    %rax,0x10(%rbp)
  402a6c:	48 b8 63 72 65 61 74 	movabs $0x7320657461657263,%rax
  402a73:	65 20 73 
  402a76:	48 89 45 18          	mov    %rax,0x18(%rbp)
  402a7a:	c7 45 20 6f 63 6b 65 	movl   $0x656b636f,0x20(%rbp)
  402a81:	66 c7 45 24 74 00    	movw   $0x74,0x24(%rbp)
  402a87:	b8 ff ff ff ff       	mov    $0xffffffff,%eax
  402a8c:	e9 fa 00 00 00       	jmpq   402b8b <init_driver+0x199>
  402a91:	48 c7 04 24 00 00 00 	movq   $0x0,(%rsp)
  402a98:	00 
  402a99:	48 c7 44 24 08 00 00 	movq   $0x0,0x8(%rsp)
  402aa0:	00 00 
  402aa2:	66 c7 04 24 02 00    	movw   $0x2,(%rsp)
  402aa8:	66 c7 44 24 02 3c 9a 	movw   $0x9a3c,0x2(%rsp)
  402aaf:	48 8d 54 24 04       	lea    0x4(%rsp),%rdx
  402ab4:	be be 34 40 00       	mov    $0x4034be,%esi
  402ab9:	bf 02 00 00 00       	mov    $0x2,%edi
  402abe:	e8 6d e2 ff ff       	callq  400d30 <inet_pton@plt>
  402ac3:	83 f8 01             	cmp    $0x1,%eax
  402ac6:	74 4a                	je     402b12 <init_driver+0x120>
  402ac8:	48 b8 45 72 72 6f 72 	movabs $0x49203a726f727245,%rax
  402acf:	3a 20 49 
  402ad2:	48 89 45 00          	mov    %rax,0x0(%rbp)
  402ad6:	48 b8 6e 76 61 6c 69 	movabs $0x732064696c61766e,%rax
  402add:	64 20 73 
  402ae0:	48 89 45 08          	mov    %rax,0x8(%rbp)
  402ae4:	48 b8 65 72 76 65 72 	movabs $0x7069207265767265,%rax
  402aeb:	20 69 70 
  402aee:	48 89 45 10          	mov    %rax,0x10(%rbp)
  402af2:	48 b8 20 61 64 64 72 	movabs $0x7373657264646120,%rax
  402af9:	65 73 73 
  402afc:	48 89 45 18          	mov    %rax,0x18(%rbp)
  402b00:	c6 45 20 00          	movb   $0x0,0x20(%rbp)
  402b04:	89 df                	mov    %ebx,%edi
  402b06:	e8 a5 e1 ff ff       	callq  400cb0 <close@plt>
  402b0b:	b8 ff ff ff ff       	mov    $0xffffffff,%eax
  402b10:	eb 79                	jmp    402b8b <init_driver+0x199>
  402b12:	ba 10 00 00 00       	mov    $0x10,%edx
  402b17:	48 89 e6             	mov    %rsp,%rsi
  402b1a:	89 df                	mov    %ebx,%edi
  402b1c:	e8 cf e2 ff ff       	callq  400df0 <connect@plt>
  402b21:	85 c0                	test   %eax,%eax
  402b23:	79 50                	jns    402b75 <init_driver+0x183>
  402b25:	48 b8 45 72 72 6f 72 	movabs $0x55203a726f727245,%rax
  402b2c:	3a 20 55 
  402b2f:	48 89 45 00          	mov    %rax,0x0(%rbp)
  402b33:	48 b8 6e 61 62 6c 65 	movabs $0x6f7420656c62616e,%rax
  402b3a:	20 74 6f 
  402b3d:	48 89 45 08          	mov    %rax,0x8(%rbp)
  402b41:	48 b8 20 63 6f 6e 6e 	movabs $0x7463656e6e6f6320,%rax
  402b48:	65 63 74 
  402b4b:	48 89 45 10          	mov    %rax,0x10(%rbp)
  402b4f:	48 b8 20 74 6f 20 73 	movabs $0x76726573206f7420,%rax
  402b56:	65 72 76 
  402b59:	48 89 45 18          	mov    %rax,0x18(%rbp)
  402b5d:	66 c7 45 20 65 72    	movw   $0x7265,0x20(%rbp)
  402b63:	c6 45 22 00          	movb   $0x0,0x22(%rbp)
  402b67:	89 df                	mov    %ebx,%edi
  402b69:	e8 42 e1 ff ff       	callq  400cb0 <close@plt>
  402b6e:	b8 ff ff ff ff       	mov    $0xffffffff,%eax
  402b73:	eb 16                	jmp    402b8b <init_driver+0x199>
  402b75:	89 df                	mov    %ebx,%edi
  402b77:	e8 34 e1 ff ff       	callq  400cb0 <close@plt>
  402b7c:	66 c7 45 00 4f 4b    	movw   $0x4b4f,0x0(%rbp)
  402b82:	c6 45 02 00          	movb   $0x0,0x2(%rbp)
  402b86:	b8 00 00 00 00       	mov    $0x0,%eax
  402b8b:	48 83 c4 18          	add    $0x18,%rsp
  402b8f:	5b                   	pop    %rbx
  402b90:	5d                   	pop    %rbp
  402b91:	c3                   	retq   

0000000000402b92 <driver_post>:
  402b92:	53                   	push   %rbx
  402b93:	48 83 ec 10          	sub    $0x10,%rsp
  402b97:	4c 89 cb             	mov    %r9,%rbx
  402b9a:	45 85 c0             	test   %r8d,%r8d
  402b9d:	74 22                	je     402bc1 <driver_post+0x2f>
  402b9f:	48 89 ce             	mov    %rcx,%rsi
  402ba2:	bf cb 34 40 00       	mov    $0x4034cb,%edi
  402ba7:	b8 00 00 00 00       	mov    $0x0,%eax
  402bac:	e8 cf e0 ff ff       	callq  400c80 <printf@plt>
  402bb1:	66 c7 03 4f 4b       	movw   $0x4b4f,(%rbx)
  402bb6:	c6 43 02 00          	movb   $0x0,0x2(%rbx)
  402bba:	b8 00 00 00 00       	mov    $0x0,%eax
  402bbf:	eb 39                	jmp    402bfa <driver_post+0x68>
  402bc1:	48 85 ff             	test   %rdi,%rdi
  402bc4:	74 26                	je     402bec <driver_post+0x5a>
  402bc6:	80 3f 00             	cmpb   $0x0,(%rdi)
  402bc9:	74 21                	je     402bec <driver_post+0x5a>
  402bcb:	4c 89 0c 24          	mov    %r9,(%rsp)
  402bcf:	49 89 c9             	mov    %rcx,%r9
  402bd2:	49 89 d0             	mov    %rdx,%r8
  402bd5:	48 89 f9             	mov    %rdi,%rcx
  402bd8:	48 89 f2             	mov    %rsi,%rdx
  402bdb:	be 9a 3c 00 00       	mov    $0x3c9a,%esi
  402be0:	bf be 34 40 00       	mov    $0x4034be,%edi
  402be5:	e8 ad f6 ff ff       	callq  402297 <submitr>
  402bea:	eb 0e                	jmp    402bfa <driver_post+0x68>
  402bec:	66 c7 03 4f 4b       	movw   $0x4b4f,(%rbx)
  402bf1:	c6 43 02 00          	movb   $0x0,0x2(%rbx)
  402bf5:	b8 00 00 00 00       	mov    $0x0,%eax
  402bfa:	48 83 c4 10          	add    $0x10,%rsp
  402bfe:	5b                   	pop    %rbx
  402bff:	c3                   	retq   

0000000000402c00 <check>:
  402c00:	89 f8                	mov    %edi,%eax
  402c02:	c1 e8 1c             	shr    $0x1c,%eax
  402c05:	85 c0                	test   %eax,%eax
  402c07:	74 1d                	je     402c26 <check+0x26>
  402c09:	b9 00 00 00 00       	mov    $0x0,%ecx
  402c0e:	eb 0b                	jmp    402c1b <check+0x1b>
  402c10:	89 f8                	mov    %edi,%eax
  402c12:	d3 e8                	shr    %cl,%eax
  402c14:	3c 0a                	cmp    $0xa,%al
  402c16:	74 14                	je     402c2c <check+0x2c>
  402c18:	83 c1 08             	add    $0x8,%ecx
  402c1b:	83 f9 1f             	cmp    $0x1f,%ecx
  402c1e:	7e f0                	jle    402c10 <check+0x10>
  402c20:	b8 01 00 00 00       	mov    $0x1,%eax
  402c25:	c3                   	retq   
  402c26:	b8 00 00 00 00       	mov    $0x0,%eax
  402c2b:	c3                   	retq   
  402c2c:	b8 00 00 00 00       	mov    $0x0,%eax
  402c31:	c3                   	retq   

0000000000402c32 <gencookie>:
  402c32:	53                   	push   %rbx
  402c33:	83 c7 01             	add    $0x1,%edi
  402c36:	e8 e5 df ff ff       	callq  400c20 <srandom@plt>
  402c3b:	e8 10 e1 ff ff       	callq  400d50 <random@plt>
  402c40:	89 c3                	mov    %eax,%ebx
  402c42:	89 c7                	mov    %eax,%edi
  402c44:	e8 b7 ff ff ff       	callq  402c00 <check>
  402c49:	85 c0                	test   %eax,%eax
  402c4b:	74 ee                	je     402c3b <gencookie+0x9>
  402c4d:	89 d8                	mov    %ebx,%eax
  402c4f:	5b                   	pop    %rbx
  402c50:	c3                   	retq   
  402c51:	66 2e 0f 1f 84 00 00 	nopw   %cs:0x0(%rax,%rax,1)
  402c58:	00 00 00 
  402c5b:	0f 1f 44 00 00       	nopl   0x0(%rax,%rax,1)

0000000000402c60 <__libc_csu_init>:
  402c60:	41 57                	push   %r15
  402c62:	41 89 ff             	mov    %edi,%r15d
  402c65:	41 56                	push   %r14
  402c67:	49 89 f6             	mov    %rsi,%r14
  402c6a:	41 55                	push   %r13
  402c6c:	49 89 d5             	mov    %rdx,%r13
  402c6f:	41 54                	push   %r12
  402c71:	4c 8d 25 98 21 20 00 	lea    0x202198(%rip),%r12        # 604e10 <__frame_dummy_init_array_entry>
  402c78:	55                   	push   %rbp
  402c79:	48 8d 2d 98 21 20 00 	lea    0x202198(%rip),%rbp        # 604e18 <__do_global_dtors_aux_fini_array_entry>
  402c80:	53                   	push   %rbx
  402c81:	4c 29 e5             	sub    %r12,%rbp
  402c84:	31 db                	xor    %ebx,%ebx
  402c86:	48 c1 fd 03          	sar    $0x3,%rbp
  402c8a:	48 83 ec 08          	sub    $0x8,%rsp
  402c8e:	e8 2d df ff ff       	callq  400bc0 <_init>
  402c93:	48 85 ed             	test   %rbp,%rbp
  402c96:	74 1e                	je     402cb6 <__libc_csu_init+0x56>
  402c98:	0f 1f 84 00 00 00 00 	nopl   0x0(%rax,%rax,1)
  402c9f:	00 
  402ca0:	4c 89 ea             	mov    %r13,%rdx
  402ca3:	4c 89 f6             	mov    %r14,%rsi
  402ca6:	44 89 ff             	mov    %r15d,%edi
  402ca9:	41 ff 14 dc          	callq  *(%r12,%rbx,8)
  402cad:	48 83 c3 01          	add    $0x1,%rbx
  402cb1:	48 39 eb             	cmp    %rbp,%rbx
  402cb4:	75 ea                	jne    402ca0 <__libc_csu_init+0x40>
  402cb6:	48 83 c4 08          	add    $0x8,%rsp
  402cba:	5b                   	pop    %rbx
  402cbb:	5d                   	pop    %rbp
  402cbc:	41 5c                	pop    %r12
  402cbe:	41 5d                	pop    %r13
  402cc0:	41 5e                	pop    %r14
  402cc2:	41 5f                	pop    %r15
  402cc4:	c3                   	retq   
  402cc5:	90                   	nop
  402cc6:	66 2e 0f 1f 84 00 00 	nopw   %cs:0x0(%rax,%rax,1)
  402ccd:	00 00 00 

0000000000402cd0 <__libc_csu_fini>:
  402cd0:	f3 c3                	repz retq 

Disassembly of section .fini:

0000000000402cd4 <_fini>:
  402cd4:	48 83 ec 08          	sub    $0x8,%rsp
  402cd8:	48 83 c4 08          	add    $0x8,%rsp
  402cdc:	c3                   	retq   
